 alib100

 Timestamp is 42ee3340 (Mon Aug 01 16:35:44 2005)

 Preferred load address is 10000000

 Start         Length     Name                   Class
 0001:00000000 00065dceH .text                   CODE
 0001:00065dd0 00001522H .text$x                 CODE
 0001:00067300 000008ffH .text$yc                CODE
 0001:00067c00 0000033aH .text$yd                CODE
 0002:00000000 00000404H .idata$5                DATA
 0002:00000410 00009c50H .rdata                  DATA
 0002:0000a060 00000051H .rdata$debug            DATA
 0002:0000a0b4 00000fecH .rdata$r                DATA
 0002:0000b0a0 000001bcH .rdata$sxdata           DATA
 0002:0000b25c 00000004H .rtc$IAA                DATA
 0002:0000b260 00000004H .rtc$IZZ                DATA
 0002:0000b264 00000004H .rtc$TAA                DATA
 0002:0000b268 00000004H .rtc$TZZ                DATA
 0002:0000b270 00001544H .xdata$x                DATA
 0002:0000c7b4 0000012cH .idata$2                DATA
 0002:0000c8e0 00000014H .idata$3                DATA
 0002:0000c8f4 00000404H .idata$4                DATA
 0002:0000ccf8 00000f14H .idata$6                DATA
 0002:0000dc10 00004b7eH .edata                  DATA
 0003:00000000 00000004H .CRT$XCA                DATA
 0003:00000004 00000004H .CRT$XCAA               DATA
 0003:00000008 000000c4H .CRT$XCU                DATA
 0003:000000cc 00000004H .CRT$XCZ                DATA
 0003:000000d0 00000004H .CRT$XIA                DATA
 0003:000000d4 00000004H .CRT$XIAA               DATA
 0003:000000d8 00000004H .CRT$XIC                DATA
 0003:000000dc 00000004H .CRT$XIZ                DATA
 0003:000000e0 0003d2f0H .data                   DATA
 0003:0003d3d0 00016074H .bss                    DATA
 0004:00000000 00000990H .rsrc$01                DATA
 0004:00000990 000486f0H .rsrc$02                DATA

  Address         Publics by Value              Rva+Base       Lib:Object

 0000:00000000       __except_list              00000000       <absolute>
 0000:0000006f       ___safe_se_handler_count   0000006f       <absolute>
 0000:00009876       __ldused                   00009876       <absolute>
 0000:00009876       __fltused                  00009876       <absolute>
 0001:00000000       _adler32                   10001000 f     adler32.obj
 0001:00000140       ?inflate_blocks_reset@@YAXPAUinflate_blocks_state@@PAUz_stream_s@@PAK@Z 10001140 f     infblock.obj
 0001:000001e0       ?inflate_blocks_new@@YAPAUinflate_blocks_state@@PAUz_stream_s@@P6AKKPBEI@ZI@Z 100011e0 f     infblock.obj
 0001:00000260       ?inflate_blocks@@YAHPAUinflate_blocks_state@@PAUz_stream_s@@H@Z 10001260 f     infblock.obj
 0001:00000cd0       ?inflate_blocks_free@@YAHPAUinflate_blocks_state@@PAUz_stream_s@@PAK@Z 10001cd0 f     infblock.obj
 0001:00000d10       ?inflate_set_dictionary@@YAXPAUinflate_blocks_state@@PBEI@Z 10001d10 f     infblock.obj
 0001:00000d40       ?inflate_codes_new@@YAPAUinflate_codes_state@@IIPAUinflate_huft_s@@0PAUz_stream_s@@@Z 10001d40 f     infcodes.obj
 0001:00000d80       ?inflate_codes@@YAHPAUinflate_blocks_state@@PAUz_stream_s@@H@Z 10001d80 f     infcodes.obj
 0001:000013f0       ?inflate_codes_free@@YAXPAUinflate_codes_state@@PAUz_stream_s@@@Z 100023f0 f     infcodes.obj
 0001:00001410       ?inflate_fast@@YAHIIPAUinflate_huft_s@@0PAUinflate_blocks_state@@PAUz_stream_s@@@Z 10002410 f     inffast.obj
 0001:00001730       _inflateReset              10002730 f     inflate.obj
 0001:00001780       _inflateEnd                10002780 f     inflate.obj
 0001:000017d0       _inflateInit2_             100027d0 f     inflate.obj
 0001:000018d0       _inflateInit_              100028d0 f     inflate.obj
 0001:000018f0       _inflate                   100028f0 f     inflate.obj
 0001:00001c90       _inflateSetDictionary      10002c90 f     inflate.obj
 0001:00001d10       _inflateSync               10002d10 f     inflate.obj
 0001:00001e10       ?inflate_trees_free@@YAHPAUinflate_huft_s@@PAUz_stream_s@@@Z 10002e10 f     inftrees.obj
 0001:00002340       ?inflate_trees_bits@@YAHPAI0PAPAUinflate_huft_s@@PAUz_stream_s@@@Z 10003340 f     inftrees.obj
 0001:00002390       ?inflate_trees_dynamic@@YAHIIPAI00PAPAUinflate_huft_s@@1PAUz_stream_s@@@Z 10003390 f     inftrees.obj
 0001:00002450       ?inflate_trees_fixed@@YAHPAI0PAPAUinflate_huft_s@@1@Z 10003450 f     inftrees.obj
 0001:00002700       ?inflate_flush@@YAHPAUinflate_blocks_state@@PAUz_stream_s@@H@Z 10003700 f     infutil.obj
 0001:000027f0       _uncompress                100037f0 f     uncompr.obj
 0001:00002880       ?zcalloc@@YAPAXPAXII@Z     10003880 f     zutil.obj
 0001:000028a0       ?zcfree@@YAXPAX0@Z         100038a0 f     zutil.obj
 0001:000028b0       ?keymatch@@YAEPADPBDH@Z    100038b0 f     cdjpeg.obj
 0001:00002930       ?read_stdin@@YAPAU_iobuf@@XZ 10003930 f     cdjpeg.obj
 0001:00002940       ?write_stdout@@YAPAU_iobuf@@XZ 10003940 f     cdjpeg.obj
 0001:00003130       _main                      10004130 f     cjpeg.obj
 0001:00003370       ?jpeg_create_compress@@YAXPAUjpeg_compress_struct@@@Z 10004370 f     jcapimin.obj
 0001:000033e0       ?jpeg_destroy_compress@@YAXPAUjpeg_compress_struct@@@Z 100043e0 f     jcapimin.obj
 0001:000033f0       ?jpeg_abort_compress@@YAXPAUjpeg_compress_struct@@@Z 100043f0 f     jcapimin.obj
 0001:00003400       ?jpeg_suppress_tables@@YAXPAUjpeg_compress_struct@@E@Z 10004400 f     jcapimin.obj
 0001:00003470       ?jpeg_finish_compress@@YAXPAUjpeg_compress_struct@@@Z 10004470 f     jcapimin.obj
 0001:00003590       ?jpeg_write_marker@@YAXPAUjpeg_compress_struct@@HPBEI@Z 10004590 f     jcapimin.obj
 0001:000035f0       ?jpeg_write_tables@@YAXPAUjpeg_compress_struct@@@Z 100045f0 f     jcapimin.obj
 0001:00003650       ?jpeg_start_compress@@YAXPAUjpeg_compress_struct@@E@Z 10004650 f     jcapistd.obj
 0001:000036d0       ?jpeg_write_scanlines@@YAIPAUjpeg_compress_struct@@PAPAEI@Z 100046d0 f     jcapistd.obj
 0001:00003790       ?jpeg_write_raw_data@@YAIPAUjpeg_compress_struct@@PAPAPAEI@Z 10004790 f     jcapistd.obj
 0001:00004060       ?jinit_c_coef_controller@@YAXPAUjpeg_compress_struct@@E@Z 10005060 f     jccoefct.obj
 0001:00004660       ?jinit_color_converter@@YAXPAUjpeg_compress_struct@@@Z 10005660 f     jccolor.obj
 0001:000051c0       ?jinit_forward_dct@@YAXPAUjpeg_compress_struct@@@Z 100061c0 f     jcdctmgr.obj
 0001:00005230       ?jpeg_make_c_derived_tbl@@YAXPAUjpeg_compress_struct@@PAUJHUFF_TBL@@PAPAUc_derived_tbl@@@Z 10006230 f     jchuff.obj
 0001:00005a80       ?jpeg_gen_optimal_table@@YAXPAUjpeg_compress_struct@@PAUJHUFF_TBL@@QAJ@Z 10006a80 f     jchuff.obj
 0001:00005ff0       ?jinit_huff_encoder@@YAXPAUjpeg_compress_struct@@@Z 10006ff0 f     jchuff.obj
 0001:00006050       ?jinit_compress_master@@YAXPAUjpeg_compress_struct@@@Z 10007050 f     jcinit.obj
 0001:00006210       ?jinit_c_main_controller@@YAXPAUjpeg_compress_struct@@E@Z 10007210 f     jcmainct.obj
 0001:00007120       ?jinit_marker_writer@@YAXPAUjpeg_compress_struct@@@Z 10008120 f     jcmarker.obj
 0001:00007c80       ?jinit_c_master_control@@YAXPAUjpeg_compress_struct@@E@Z 10008c80 f     jcmaster.obj
 0001:00007d30       ?jpeg_abort@@YAXPAUjpeg_common_struct@@@Z 10008d30 f     jcomapi.obj
 0001:00007d60       ?jpeg_destroy@@YAXPAUjpeg_common_struct@@@Z 10008d60 f     jcomapi.obj
 0001:00007d90       ?jpeg_alloc_quant_table@@YAPAUJQUANT_TBL@@PAUjpeg_common_struct@@@Z 10008d90 f     jcomapi.obj
 0001:00007db0       ?jpeg_alloc_huff_table@@YAPAUJHUFF_TBL@@PAUjpeg_common_struct@@@Z 10008db0 f     jcomapi.obj
 0001:00007dd0       ?jpeg_add_quant_table@@YAXPAUjpeg_compress_struct@@HPBIHE@Z 10008dd0 f     jcparam.obj
 0001:00007f80       ?jpeg_set_linear_quality@@YAXPAUjpeg_compress_struct@@HE@Z 10008f80 f     jcparam.obj
 0001:00007fc0       ?jpeg_quality_scaling@@YAHH@Z 10008fc0 f     jcparam.obj
 0001:00008000       ?jpeg_set_quality@@YAXPAUjpeg_compress_struct@@HE@Z 10009000 f     jcparam.obj
 0001:00008240       ?jpeg_set_colorspace@@YAXPAUjpeg_compress_struct@@W4J_COLOR_SPACE@@@Z 10009240 f     jcparam.obj
 0001:00008600       ?jpeg_simple_progression@@YAXPAUjpeg_compress_struct@@@Z 10009600 f     jcparam.obj
 0001:00008830       ?jpeg_default_colorspace@@YAXPAUjpeg_compress_struct@@@Z 10009830 f     jcparam.obj
 0001:00008af0       ?jpeg_set_defaults@@YAXPAUjpeg_compress_struct@@@Z 10009af0 f     jcparam.obj
 0001:000098b0       ?jinit_phuff_encoder@@YAXPAUjpeg_compress_struct@@@Z 1000a8b0 f     jcphuff.obj
 0001:00009b70       ?jinit_c_prep_controller@@YAXPAUjpeg_compress_struct@@E@Z 1000ab70 f     jcprepct.obj
 0001:0000a020       ?jinit_downsampler@@YAXPAUjpeg_compress_struct@@@Z 1000b020 f     jcsample.obj
 0001:0000a130       ?jpeg_create_decompress@@YAXPAUjpeg_decompress_struct@@@Z 1000b130 f     jdapimin.obj
 0001:0000a1c0       ?jpeg_destroy_decompress@@YAXPAUjpeg_decompress_struct@@@Z 1000b1c0 f     jdapimin.obj
 0001:0000a1d0       ?jpeg_abort_decompress@@YAXPAUjpeg_decompress_struct@@@Z 1000b1d0 f     jdapimin.obj
 0001:0000a1e0       ?jpeg_set_marker_processor@@YAXPAUjpeg_decompress_struct@@HP6AE0@Z@Z 1000b1e0 f     jdapimin.obj
 0001:0000a410       ?jpeg_consume_input@@YAHPAUjpeg_decompress_struct@@@Z 1000b410 f     jdapimin.obj
 0001:0000a4e0       ?jpeg_input_complete@@YAEPAUjpeg_decompress_struct@@@Z 1000b4e0 f     jdapimin.obj
 0001:0000a530       ?jpeg_has_multiple_scans@@YAEPAUjpeg_decompress_struct@@@Z 1000b530 f     jdapimin.obj
 0001:0000a580       ?jpeg_finish_decompress@@YAEPAUjpeg_decompress_struct@@@Z 1000b580 f     jdapimin.obj
 0001:0000a650       ?jpeg_read_header@@YAHPAUjpeg_decompress_struct@@E@Z 1000b650 f     jdapimin.obj
 0001:0000a740       ?jpeg_read_scanlines@@YAIPAUjpeg_decompress_struct@@PAPAEI@Z 1000b740 f     jdapistd.obj
 0001:0000a7e0       ?jpeg_read_raw_data@@YAIPAUjpeg_decompress_struct@@PAPAPAEI@Z 1000b7e0 f     jdapistd.obj
 0001:0000a8a0       ?jpeg_start_output@@YAEPAUjpeg_decompress_struct@@H@Z 1000b8a0 f     jdapistd.obj
 0001:0000a900       ?jpeg_finish_output@@YAEPAUjpeg_decompress_struct@@@Z 1000b900 f     jdapistd.obj
 0001:0000a9a0       ?jpeg_start_decompress@@YAEPAUjpeg_decompress_struct@@@Z 1000b9a0 f     jdapistd.obj
 0001:0000ab80       ?jpeg_stdio_dest@@YAXPAUjpeg_compress_struct@@PAU_iobuf@@@Z 1000bb80 f     jdatadst.obj
 0001:0000aca0       ?jpeg_stdio_src@@YAXPAUjpeg_decompress_struct@@PAU_iobuf@@@Z 1000bca0 f     jdatasrc.obj
 0001:0000b420       ?jinit_d_coef_controller@@YAXPAUjpeg_decompress_struct@@E@Z 1000c420 f     jdcoefct.obj
 0001:0000b980       ?jinit_color_deconverter@@YAXPAUjpeg_decompress_struct@@@Z 1000c980 f     jdcolor.obj
 0001:0000bd20       ?jinit_inverse_dct@@YAXPAUjpeg_decompress_struct@@@Z 1000cd20 f     jddctmgr.obj
 0001:0000bda0       ?jpeg_make_d_derived_tbl@@YAXPAUjpeg_decompress_struct@@PAUJHUFF_TBL@@PAPAUd_derived_tbl@@@Z 1000cda0 f     jdhuff.obj
 0001:0000bfa0       ?jpeg_fill_bit_buffer@@YAEPAUbitread_working_state@@HHH@Z 1000cfa0 f     jdhuff.obj
 0001:0000c0b0       ?jpeg_huff_decode@@YAHPAUbitread_working_state@@HHPAUd_derived_tbl@@H@Z 1000d0b0 f     jdhuff.obj
 0001:0000c7a0       ?jinit_huff_decoder@@YAXPAUjpeg_decompress_struct@@@Z 1000d7a0 f     jdhuff.obj
 0001:0000cdb0       ?jinit_input_controller@@YAXPAUjpeg_decompress_struct@@@Z 1000ddb0 f     jdinput.obj
 0001:0000d3a0       ?jinit_d_main_controller@@YAXPAUjpeg_decompress_struct@@E@Z 1000e3a0 f     jdmainct.obj
 0001:0000eea0       ?jpeg_resync_to_restart@@YAEPAUjpeg_decompress_struct@@H@Z 1000fea0 f     jdmarker.obj
 0001:0000efe0       ?jinit_marker_reader@@YAXPAUjpeg_decompress_struct@@@Z 1000ffe0 f     jdmarker.obj
 0001:0000f0a0       ?jpeg_calc_output_dimensions@@YAXPAUjpeg_decompress_struct@@@Z 100100a0 f     jdmaster.obj
 0001:0000f510       ?jpeg_new_colormap@@YAXPAUjpeg_decompress_struct@@@Z 10010510 f     jdmaster.obj
 0001:0000f590       ?jinit_master_decompress@@YAXPAUjpeg_decompress_struct@@@Z 10010590 f     jdmaster.obj
 0001:00010310       ?jinit_phuff_decoder@@YAXPAUjpeg_decompress_struct@@@Z 10011310 f     jdphuff.obj
 0001:00010480       ?jinit_d_post_controller@@YAXPAUjpeg_decompress_struct@@E@Z 10011480 f     jdpostct.obj
 0001:000109d0       ?jinit_upsampler@@YAXPAUjpeg_decompress_struct@@@Z 100119d0 f     jdsample.obj
 0001:00010d50       ?jpeg_std_error@@YAPAUjpeg_error_mgr@@PAU1@@Z 10011d50 f     jerror.obj
 0001:00010da0       ?jpeg_fdct_float@@YAXPAM@Z 10011da0 f     jfdctflt.obj
 0001:00011170       ?jpeg_idct_float@@YAXPAUjpeg_decompress_struct@@PAUjpeg_component_info@@PAFPAPAEI@Z 10012170 f     jidctflt.obj
 0001:00012250       ?jinit_memory_mgr@@YAXPAUjpeg_common_struct@@@Z 10013250 f     jmemmgr.obj
 0001:00012310       ?jpeg_get_small@@YAPAXPAUjpeg_common_struct@@I@Z 10013310 f     jmemnobs.obj
 0001:00012320       ?jpeg_free_small@@YAXPAUjpeg_common_struct@@PAXI@Z 10013320 f     jmemnobs.obj
 0001:00012330       ?jpeg_get_large@@YAPAXPAUjpeg_common_struct@@I@Z 10013330 f     jmemnobs.obj
 0001:00012340       ?jpeg_free_large@@YAXPAUjpeg_common_struct@@PAXI@Z 10013340 f     jmemnobs.obj
 0001:00012350       ?jpeg_mem_available@@YAJPAUjpeg_common_struct@@JJJ@Z 10013350 f     jmemnobs.obj
 0001:00012360       ?jpeg_open_backing_store@@YAXPAUjpeg_common_struct@@PAUbacking_store_struct@@J@Z 10013360 f     jmemnobs.obj
 0001:00012380       ?jpeg_mem_init@@YAJPAUjpeg_common_struct@@@Z 10013380 f     jmemnobs.obj
 0001:00012390       ?jpeg_mem_term@@YAXPAUjpeg_common_struct@@@Z 10013390 f     jmemnobs.obj
 0001:000123a0       ?jdiv_round_up@@YAJJJ@Z    100133a0 f     jutils.obj
 0001:000123b0       ?jround_up@@YAJJJ@Z        100133b0 f     jutils.obj
 0001:000123d0       ?jcopy_sample_rows@@YAXPAPAEH0HHI@Z 100133d0 f     jutils.obj
 0001:00012420       ?jcopy_block_row@@YAXPAY0EA@F0I@Z 10013420 f     jutils.obj
 0001:00012440       ?jzero_far@@YAXPAXI@Z      10013440 f     jutils.obj
 0001:00012560       ?read_quant_tables@@YAEPAUjpeg_compress_struct@@PADHE@Z 10013560 f     rdswitch.obj
 0001:00012770       ?read_scan_script@@YAEPAUjpeg_compress_struct@@PAD@Z 10013770 f     rdswitch.obj
 0001:00012a00       ?set_quant_slots@@YAEPAUjpeg_compress_struct@@PAD@Z 10013a00 f     rdswitch.obj
 0001:00012ab0       ?set_sample_factors@@YAEPAUjpeg_compress_struct@@PAD@Z 10013ab0 f     rdswitch.obj
 0001:00012ba0       ?FLASHOUTPUT@@YAXPBDZZ     10013ba0 f i   _Display.obj
 0001:00012bb0       ??_FAnode@@QAEXXZ          10013bb0 f i   _Display.obj
 0001:00012bc0       ??0Arectangle@@QAE@HHHH@Z  10013bc0 f i   _Display.obj
 0001:00012be0       ?DepthToSimplestPixelFormat@NativeDisplayTester@@SAHH@Z 10013be0 f     _Display.obj
 0001:00012c60       ??0NativeDisplayTester@@QAE@XZ 10013c60 f     _Display.obj
 0001:00012c70       ??1NativeDisplayTester@@QAE@XZ 10013c70 f     _Display.obj
 0001:00012c80       ?CurrentScreenBitDepth@NativeDisplayTester@@SAHXZ 10013c80 f     _Display.obj
 0001:00012c90       ?CurrentScreenColors@NativeDisplayTester@@SAKXZ 10013c90 f     _Display.obj
 0001:00012ca0       ?TestDepth@NativeDisplayTester@@QAEXH@Z 10013ca0 f     _Display.obj
 0001:00012cc0       ??0NativeBitmap@@QAE@PAVNativePlayerWnd@@PBUSColorTable@@HHHH@Z 10013cc0 f     _Display.obj
 0001:00012d10       ?notify@Anode@@UAE_NPAV1@HI@Z 10013d10 f i   _Display.obj
 0001:00012d70       ?getCI@NativeBitmap@@UAEPAVACI@@XZ 10013d70 f i   _Display.obj
 0001:00012d80       ??1NativeBitmap@@UAE@XZ    10013d80 f     _Display.obj
 0001:00012d90       ?BltNativeToScreen@NativeBitmap@@QAEXPAVNativePlayerWnd@@HHHHHH@Z 10013d90 f     _Display.obj
 0001:00012e00       ?ClearScreen@NativeBitmap@@QAEXPAVNativePlayerWnd@@@Z 10013e00 f     _Display.obj
 0001:00012e10       ??_ENativeBitmap@@UAEPAXI@Z 10013e10 f i   _Display.obj
 0001:00012e10       ??_GNativeBitmap@@UAEPAXI@Z 10013e10 f i   _Display.obj
 0001:00012e40       ?debugbreak@@YAXXZ         10013e40 f     debug.obj
 0001:00012e50       ?dprintf@@YAXPBDZZ         10013e50 f     debug.obj
 0001:00012ea0       ?CreateOSPalette@SColorInfo@@QAEXXZ 10013ea0 f     palette.obj
 0001:00012eb0       ?DestroyOSPalette@SColorInfo@@QAEXXZ 10013eb0 f     palette.obj
 0001:00012ec0       ?GetScreenPalette@NativePalette@@SAXPAUSColorTable@@@Z 10013ec0 f     palette.obj
 0001:00012f60       ?ClearSystemPalette@NativePalette@@SAXPAUHWND__@@@Z 10013f60 f     palette.obj
 0001:00013010       ?CreateIdentityPalette@NativePalette@@SAPAUHPALETTE__@@PAUHWND__@@@Z 10014010 f     palette.obj
 0001:00013160       ?ExitApp@NativePlayerWnd@@IAEXXZ 10014160 f i   PlayerWnd.obj
 0001:00013170       ?SetFullScreen@NativePlayerWnd@@IAEXH@Z 10014170 f i   PlayerWnd.obj
 0001:00013180       ?SetScaleMode@NativePlayerWnd@@IAEXH@Z 10014180 f i   PlayerWnd.obj
 0001:000131b0       ?ExecSystem@NativePlayerWnd@@IAEXPBD@Z 100141b0 f i   PlayerWnd.obj
 0001:000131c0       ?About@@YGJPAUHWND__@@IIJ@Z 100141c0 f     PlayerWnd.obj
 0001:00013280       ??0NativePlayerWnd@@QAE@PAVAflash@@@Z 10014280 f     PlayerWnd.obj
 0001:000132f0       ?StreamPostURLNotify@NativePlayerWnd@@UAEXPBD0K0PAX@Z 100142f0 f i   PlayerWnd.obj
 0001:00013300       ??1NativePlayerWnd@@UAE@XZ 10014300 f     PlayerWnd.obj
 0001:00013360       ?PlayTimerFire@NativePlayerWnd@@QAEXXZ 10014360 f     PlayerWnd.obj
 0001:00013370       ?CursorTimerFire@NativePlayerWnd@@QAEXXZ 10014370 f     PlayerWnd.obj
 0001:00013380       ?ClientRect@NativePlayerWnd@@UAEXPAUSRECT@@@Z 10014380 f     PlayerWnd.obj
 0001:000133c0       ?InvalidateScreenArea@NativePlayerWnd@@UAEXPAUSRECT@@@Z 100143c0 f     PlayerWnd.obj
 0001:000133d0       ?AdjustWindow@NativePlayerWnd@@UAEXHH@Z 100143d0 f     PlayerWnd.obj
 0001:000133e0       ?StartTimer@NativePlayerWnd@@UAEHHH@Z 100143e0 f     PlayerWnd.obj
 0001:00013440       ?StopTimer@NativePlayerWnd@@UAEXXZ 10014440 f     PlayerWnd.obj
 0001:00013450       ?EnableMenus@NativePlayerWnd@@UAEXABUMenuStatus@@@Z 10014450 f     PlayerWnd.obj
 0001:00013460       ?ProcessFSCommand@NativePlayerWnd@@UAEXPAD0@Z 10014460 f     PlayerWnd.obj
 0001:00013590       ?UpdateCursor@NativePlayerWnd@@UAEHXZ 10014590 f     PlayerWnd.obj
 0001:000135a0       ?GetStringFromClipboard@NativePlayerWnd@@QAEPAGXZ 100145a0 f     PlayerWnd.obj
 0001:00013610       ?SetStringToClipboard@NativePlayerWnd@@QAEXPBG@Z 10014610 f     PlayerWnd.obj
 0001:00013690       ?CloseStream@NativePlayerWnd@@UAEXPAUStreamData@@@Z 10014690 f     PlayerWnd.obj
 0001:000136a0       ?StreamGetURLNotify@NativePlayerWnd@@UAEXPBD0PAX@Z 100146a0 f     PlayerWnd.obj
 0001:00013770       ?StreamGetResourceNotify@NativePlayerWnd@@UAEXPAVAresobj@@PAX@Z 10014770 f     PlayerWnd.obj
 0001:000137e0       ??_GNativePlayerWnd@@UAEPAXI@Z 100147e0 f i   PlayerWnd.obj
 0001:000137e0       ??_ENativePlayerWnd@@UAEPAXI@Z 100147e0 f i   PlayerWnd.obj
 0001:00013800       ?BestDetectedFormat@NativeDisplayTester@@QAEHXZ 10014800 f i   bitbuf.obj
 0001:00013810       ?BestDetectedInvert@NativeDisplayTester@@QAEHXZ 10014810 f i   bitbuf.obj
 0001:00013820       ?Bits@NativeBitmap@@QAEPAEXZ 10014820 f i   bitbuf.obj
 0001:00013830       ?ScanLine@NativeBitmap@@QAEHXZ 10014830 f i   bitbuf.obj
 0001:00013840       ?LockBits@CBitBuffer@@QAEHXZ 10014840 f i   bitbuf.obj
 0001:00013860       ?UnlockBits@CBitBuffer@@QAEXXZ 10014860 f i   bitbuf.obj
 0001:00013870       ?AttachColorInfo@@YAXPAUSColorInfo@@@Z 10014870 f i   bitbuf.obj
 0001:00013880       ??0ITabBuilder@@QAE@PAE@Z  10014880 f i   bitbuf.obj
 0001:000138b0       ?ColorDist@@YAHHH@Z        100148b0 f i   bitbuf.obj
 0001:000138c0       ?FillCube@ITabBuilder@@QAEXURGB8@@HH@Z 100148c0 f     bitbuf.obj
 0001:00013aa0       ?BuildInverseTable@@YAXPAUSColorTable@@PAE@Z 10014aa0 f     bitbuf.obj
 0001:00013b30       ?ColorTableEqual@@YAHPAUSColorTable@@0@Z 10014b30 f     bitbuf.obj
 0001:00013ba0       ?ColorTableCopy@@YAXPAUSColorTable@@0@Z 10014ba0 f     bitbuf.obj
 0001:00013be0       ?CreateColorInfo@@YAPAUSColorInfo@@PAUSColorTable@@@Z 10014be0 f     bitbuf.obj
 0001:00013c50       ?GetColorInfo@@YAPAUSColorInfo@@PAUSColorTable@@@Z 10014c50 f     bitbuf.obj
 0001:00013ca0       ?ReleaseColorInfo@@YAXPAUSColorInfo@@@Z 10014ca0 f     bitbuf.obj
 0001:00013d10       ?SetStandardColors@@YAXPAUSColorTable@@@Z 10014d10 f     bitbuf.obj
 0001:00013df0       ??0CBitBuffer@@QAE@XZ      10014df0 f     bitbuf.obj
 0001:00013e10       ?BitsValid@CBitBuffer@@QAEHXZ 10014e10 f     bitbuf.obj
 0001:00013e30       ?FreeBits@CBitBuffer@@QAEXXZ 10014e30 f     bitbuf.obj
 0001:00013e60       ?setAllowPurge@CBitBuffer@@QAEXH@Z 10014e60 f     bitbuf.obj
 0001:00013e70       ?CreateScreenBits@CBitBuffer@@QAEHPAVNativePlayerWnd@@PAUSRECT@@@Z 10014e70 f     bitbuf.obj
 0001:00014000       ?bltToScreen@CBitBuffer@@QAEXPAVNativePlayerWnd@@HHHHHH@Z 10015000 f     bitbuf.obj
 0001:00014020       ?clearScreen@CBitBuffer@@QAEXPAVNativePlayerWnd@@@Z 10015020 f     bitbuf.obj
 0001:00014030       ??1CBitBuffer@@QAE@XZ      10015030 f     bitbuf.obj
 0001:00014060       ?invalidate@CBitBuffer@@QAEXXZ 10015060 f     bitbuf.obj
 0001:00014090       ?FixedMul@@YAJJJ@Z         10015090 f i   curve.obj
 0001:000140a0       ?FixedDiv@@YAJJJ@Z         100150a0 f i   curve.obj
 0001:000140d0       ?PointAdd@@YAXPAUSPOINT@@00@Z 100150d0 f i   curve.obj
 0001:000140f0       ?PointSub@@YAXPAUSPOINT@@00@Z 100150f0 f i   curve.obj
 0001:00014110       ?PointAverage@@YAXPAUSPOINT@@00@Z 10015110 f i   curve.obj
 0001:00014140       ?CurveLineCalcParam@@YAJPAUCURVE@@PAUSPOINT@@@Z 10015140 f     curve.obj
 0001:00014190       ?CurveParamInterpolate@@YAJJJJ@Z 10015190 f     curve.obj
 0001:000141b0       ?CurveSet@@YAXPAUSPOINT@@00PAUCURVE@@@Z 100151b0 f     curve.obj
 0001:000141f0       ?CurveSetLine@@YAXPAUSPOINT@@0PAUCURVE@@@Z 100151f0 f     curve.obj
 0001:00014230       ?CurveBounds@@YAXPAUCURVE@@PAUSRECT@@@Z 10015230 f     curve.obj
 0001:000142a0       ?CurveBoundsSect@@YAHPAUCURVE@@0JJPAJ1@Z 100152a0 f     curve.obj
 0001:000143f0       ?CurveCalcExtreme@@YAJJJJ@Z 100153f0 f     curve.obj
 0001:000144a0       ?CurveExtrema@@YAXPAUCURVE@@PAJ1@Z 100154a0 f     curve.obj
 0001:000144f0       ?CurveFlatness@@YAJPAUCURVE@@@Z 100154f0 f     curve.obj
 0001:00014530       ?CurveDivide@@YAXPAUCURVE@@00@Z 10015530 f     curve.obj
 0001:000145c0       ?CurveDivide@@YAXPAUCURVE@@J00@Z 100155c0 f     curve.obj
 0001:00014670       ?CurveCalcPoint@@YAXPAUCURVE@@JPAUSPOINT@@@Z 10015670 f     curve.obj
 0001:00014790       ?CurveTransform@@YAXPAUCURVE@@PAUMATRIX@@0@Z 10015790 f     curve.obj
 0001:000147d0       ?CurveTangentAngle@@YAJPAUCURVE@@J@Z 100157d0 f     curve.obj
 0001:000148b0       ?DoCurveNearestPoint@@YAXPAUCURVE@@PAUFIT_INFO@@JJ@Z 100158b0 f     curve.obj
 0001:00014a10       ?CurveNearestPoint@@YAJPAUCURVE@@PAUSPOINT@@J1@Z 10015a10 f     curve.obj
 0001:00014ad0       ?CurveReverse@@YAXPAUCURVE@@0@Z 10015ad0 f     curve.obj
 0001:00014b20       ?CurveXRaySect@@YAGPAUCURVE@@PAUSPOINT@@G@Z 10015b20 f     curve.obj
 0001:00014c10       ?CurveInitStepper@@YAXPAUCURVE@@GPAUCURVE_STEPPER@@@Z 10015c10 f     curve.obj
 0001:00014d10       ?CurveStep@@YAHPAUCURVE_STEPPER@@@Z 10015d10 f     curve.obj
 0001:00014d70       ?CurveIsExtreme@@YAHPAUCURVE@@@Z 10015d70 f     curve.obj
 0001:00014de0       ?CurveAdjust@@YAXPAUCURVE@@PAUSPOINT@@10@Z 10015de0 f     curve.obj
 0001:00014ef0       ?CurveTightBounds@@YAXPAUCURVE@@PAUSRECT@@@Z 10015ef0 f     curve.obj
 0001:00014f50       ?CurveDivideTwo@@YAXPAUCURVE@@JJ000@Z 10015f50 f     curve.obj
 0001:00015030       ?CurveLength@@YAJPAUCURVE@@@Z 10016030 f     curve.obj
 0001:000150f0       ?CurveFindLength@@YAJPAUCURVE@@J@Z 100160f0 f     curve.obj
 0001:00015230       ?PreMulAlpha@@YAHPAURGBI@@@Z 10016230 f i   edittext.obj
 0001:00015280       ?HasTransform@ColorTransform@@QAEHXZ 10016280 f i   edittext.obj
 0001:00015290       ?CreateColor@DisplayList@@QAEPAURColor@@XZ 10016290 f i   edittext.obj
 0001:000152a0       ??0SParser@@QAE@XZ         100162a0 f i   edittext.obj
 0001:000152b0       ?Attach@SParser@@QAEXPAEJJ@Z 100162b0 f i   edittext.obj
 0001:000152d0       ?SkipBytes@SParser@@QAEXH@Z 100162d0 f i   edittext.obj
 0001:000152e0       ??0SCharacterParser@@QAE@PAVScriptPlayer@@PAEJPAUMATRIX@@@Z 100162e0 f i   edittext.obj
 0001:00015310       ?GetByte@SParser@@QAEEXZ   10016310 f i   edittext.obj
 0001:00015320       ?GetWord@SParser@@QAEGXZ   10016320 f i   edittext.obj
 0001:00015340       ?IsFontIncluded@EditText@@QAEHXZ 10016340 f i   edittext.obj
 0001:00015350       ?GetTimeMSec@@YAJXZ        10016350 f i   edittext.obj
 0001:00015360       ??0EditText@@QAE@PAUSObject@@@Z 10016360 f     edittext.obj
 0001:000154b0       ??1EditText@@QAE@XZ        100164b0 f     edittext.obj
 0001:000154e0       ?PlayerIsFontAvailable@@YAHPBD@Z 100164e0 f     edittext.obj
 0001:000154f0       ?GetFontDesc@EditText@@QAEXAAUFontDesc@1@@Z 100164f0 f     edittext.obj
 0001:000157b0       ?IsMultiByte@EditText@@QAEHXZ 100167b0 f     edittext.obj
 0001:000157c0       ?IsLeadByte@EditText@@QAEHE@Z 100167c0 f     edittext.obj
 0001:000157d0       ?MBCSToWide@EditText@@QAEPAGPADHH@Z 100167d0 f     edittext.obj
 0001:00015860       ?WideToMBCS@EditText@@QAEPADPAGHH@Z 10016860 f     edittext.obj
 0001:000158c0       ?WideStrLen@@YAHPBG@Z      100168c0 f     edittext.obj
 0001:000158e0       ?WideStrCopy@@YAXPAGPBG@Z  100168e0 f     edittext.obj
 0001:00015910       ?GetBuffer@EditText@@QAEPADXZ 10016910 f     edittext.obj
 0001:00015920       ?SetBuffer@EditText@@QAEXPAD@Z 10016920 f     edittext.obj
 0001:00015990       ?ClearSelection@EditText@@QAEXXZ 10016990 f     edittext.obj
 0001:000159a0       ?DeleteSelection@EditText@@QAEXXZ 100169a0 f     edittext.obj
 0001:000159f0       ?CalcVisibleLines@EditText@@QAEHXZ 100169f0 f     edittext.obj
 0001:00015a60       ?CalcMaxVScroll@EditText@@QAEHXZ 10016a60 f     edittext.obj
 0001:00015a80       ?FindLineNumber@EditText@@QAEHH@Z 10016a80 f     edittext.obj
 0001:00015ab0       ?FindLineEnd@EditText@@QAEHH@Z 10016ab0 f     edittext.obj
 0001:00015b00       ?CopyToClipboard@EditText@@QAEXPAVNativePlayerWnd@@@Z 10016b00 f     edittext.obj
 0001:00015b70       ?Expand@EditText@@QAEXH@Z  10016b70 f     edittext.obj
 0001:00015bc0       ?Delete@EditText@@QAEXXZ   10016bc0 f     edittext.obj
 0001:00015bf0       ?BreakEnglish@EditText@@QAEHGG@Z 10016bf0 f     edittext.obj
 0001:00015c10       ?LineBreakOK@EditText@@QAEHGG@Z 10016c10 f     edittext.obj
 0001:00015c30       ?CalculateLineStarts@EditText@@QAEXPAHHH@Z 10016c30 f     edittext.obj
 0001:00015d50       ?CreateEditTextColor@@YAPAURColor@@HHHHHPAUSTransform@@PAUSObject@@@Z 10016d50 f     edittext.obj
 0001:00015e00       ?StrokeCursor@@YAXPAUSObject@@PAUMATRIX@@HHHPAURColor@@PAVSStroker@@@Z 10016e00 f     edittext.obj
 0001:00015e90       ?FindGlyph@EditText@@QAEGGAAUFontDesc@1@@Z 10016e90 f     edittext.obj
 0001:00015f30       ?FindGlyphs@EditText@@QAEPAGPAGHAAUFontDesc@1@@Z 10016f30 f     edittext.obj
 0001:00015f90       ??1SCharacterParser@@QAE@XZ 10016f90 f i   edittext.obj
 0001:00015fa0       ?GetEnabledCommands@EditText@@QAEXAAH@Z 10016fa0 f     edittext.obj
 0001:00016000       ?UpdateFromVariable@EditText@@QAEXXZ 10017000 f     edittext.obj
 0001:000160e0       ?Clear@SaveFocus@@QAEXXZ   100170e0 f     edittext.obj
 0001:00016100       ?Save@SaveFocus@@QAEXPAVSPlayer@@@Z 10017100 f     edittext.obj
 0001:00016180       ?FindLineStart@EditText@@QAEHH@Z 10017180 f i   edittext.obj
 0001:000161d0       ?AutoScroll@EditText@@QAEXXZ 100171d0 f     edittext.obj
 0001:00016330       ?FindCursor@EditText@@QAEXPAUSRECT@@PAH@Z 10017330 f     edittext.obj
 0001:00016430       ?Backspace@EditText@@QAEXXZ 10017430 f     edittext.obj
 0001:00016470       ?InsertWideChars@EditText@@QAEXPAGH@Z 10017470 f     edittext.obj
 0001:00016680       ?LineBreakOK_Index@EditText@@QAEHH@Z 10017680 f     edittext.obj
 0001:000166d0       ?Draw@EditText@@QAEHPAUSTransform@@H@Z 100176d0 f     edittext.obj
 0001:00017540       ??0SaveFocus@@QAE@XZ       10018540 f     edittext.obj
 0001:00017560       ?Insert@EditText@@QAEXG@Z  10018560 f i   edittext.obj
 0001:00017570       ?Forward@EditText@@QAEXHH@Z 10018570 f     edittext.obj
 0001:00017610       ?Backward@EditText@@QAEXHH@Z 10018610 f     edittext.obj
 0001:000176b0       ?PasteFromClipboard@EditText@@QAEXPAVNativePlayerWnd@@@Z 100186b0 f     edittext.obj
 0001:00017700       ?Insert@EditText@@QAEXPADH@Z 10018700 f     edittext.obj
 0001:00017750       ?DoMouse@EditText@@QAEXPAUSPOINT@@H@Z 10018750 f     edittext.obj
 0001:00017a00       ?HandleKeyDown@EditText@@QAEXHHPAVNativePlayerWnd@@@Z 10018a00 f     edittext.obj
 0001:00017e00       ?_FPMul@@YAJJJH@Z          10018e00 f i   fixed.obj
 0001:00017e20       ?_FPDiv@@YAJJJH@Z          10018e20 f i   fixed.obj
 0001:00017e60       ?_FPRound@@YAJJH@Z         10018e60 f i   fixed.obj
 0001:00017e90       ?FixedNearestMultiple@@YAJJJ@Z 10018e90 f     fixed.obj
 0001:00017ec0       ?__FPSin@@YAJJHH@Z         10018ec0 f     fixed.obj
 0001:00017f50       ?_FPSin@@YAJJHH@Z          10018f50 f     fixed.obj
 0001:00017fd0       ?_FPCos@@YAJJHH@Z          10018fd0 f     fixed.obj
 0001:00018070       ?__FPATan@@YAJJHH@Z        10019070 f     fixed.obj
 0001:00018180       ?_FPATan@@YAJJHH@Z         10019180 f     fixed.obj
 0001:00018260       ?_FPATan2@@YAJJJHH@Z       10019260 f     fixed.obj
 0001:00018310       ?FixedTan@@YAJJ@Z          10019310 f     fixed.obj
 0001:00018360       ?PointScale@@YAXPAUSPOINT@@J0@Z 10019360 f     geom.obj
 0001:000183b0       ?PointShift@@YAXPAUSPOINT@@H0@Z 100193b0 f     geom.obj
 0001:00018410       ?PointAverage@@YAXPAUSPOINT@@0J0@Z 10019410 f     geom.obj
 0001:00018470       ?PointEqual@@YAHPAUSPOINT@@0J@Z 10019470 f     geom.obj
 0001:000184c0       ?PointFastLength@@YAJPAUSPOINT@@@Z 100194c0 f     geom.obj
 0001:000184f0       ?PointLength@@YAJPAUSPOINT@@@Z 100194f0 f     geom.obj
 0001:00018570       ?PointDistance@@YAJPAUSPOINT@@0@Z 10019570 f     geom.obj
 0001:000185a0       ?PointFastDistance@@YAJPAUSPOINT@@0@Z 100195a0 f     geom.obj
 0001:000185d0       ?PointAngle@@YAJPAUSPOINT@@0@Z 100195d0 f     geom.obj
 0001:00018610       ?PointPolar@@YAXJJPAUSPOINT@@0@Z 10019610 f     geom.obj
 0001:00018680       ?PointPerpNearestLine@@YAXPAUSPOINT@@000@Z 10019680 f     geom.obj
 0001:000187c0       ?PointNearestLine@@YAJPAUSPOINT@@000@Z 100197c0 f     geom.obj
 0001:00018910       ?PointNormalize@@YAXPAUSPOINT@@J@Z 10019910 f     geom.obj
 0001:00018980       ?RectSet@@YAXJJJJPAUSRECT@@@Z 10019980 f     geom.obj
 0001:000189c0       ?RectSetPoint@@YAXPAUSPOINT@@PAUSRECT@@@Z 100199c0 f     geom.obj
 0001:000189e0       ?RectSetPoint2@@YAXPAUSPOINT@@0PAUSRECT@@@Z 100199e0 f     geom.obj
 0001:00018a30       ?RectSetEmpty@@YAXPAUSRECT@@@Z 10019a30 f     geom.obj
 0001:00018a50       ?RectSetHuge@@YAXPAUSRECT@@@Z 10019a50 f     geom.obj
 0001:00018a70       ?RectCenter@@YAXPAUSRECT@@PAUSPOINT@@@Z 10019a70 f     geom.obj
 0001:00018ac0       ?RectOffset@@YAXJJPAUSRECT@@@Z 10019ac0 f     geom.obj
 0001:00018af0       ?RectShift@@YAXPAUSRECT@@H0@Z 10019af0 f     geom.obj
 0001:00018b90       ?RectValidate@@YAXPAUSRECT@@@Z 10019b90 f     geom.obj
 0001:00018bc0       ?RectOppositePoint@@YAHH@Z 10019bc0 f     geom.obj
 0001:00018c30       ?RectGetPoint@@YAXPAUSRECT@@HPAUSPOINT@@@Z 10019c30 f     geom.obj
 0001:00018d30       ?RectUnion@@YAXPAUSRECT@@00@Z 10019d30 f     geom.obj
 0001:00018dd0       ?RectUnionPoint@@YAXPAUSPOINT@@PAUSRECT@@@Z 10019dd0 f     geom.obj
 0001:00018e20       ?RectIntersect@@YAXPAUSRECT@@00@Z 10019e20 f     geom.obj
 0001:00018ec0       ?RectTestIntersect@@YAHPAUSRECT@@0@Z 10019ec0 f     geom.obj
 0001:00018f00       ?RectPointIn@@YAHPAUSRECT@@PAUSPOINT@@@Z 10019f00 f     geom.obj
 0001:00018f30       ?RectEqual@@YAHPAUSRECT@@0J@Z 10019f30 f     geom.obj
 0001:00018fd0       ?RectSize@@YAJPAUSRECT@@@Z 10019fd0 f     geom.obj
 0001:00019000       ?RectSizePoint@@YAXPAUSRECT@@PAUSPOINT@@@Z 1001a000 f     geom.obj
 0001:00019020       ?RectNearDistance@@YAJPAUSRECT@@PAUSPOINT@@@Z 1001a020 f     geom.obj
 0001:00019090       ?RectDistance@@YAJPAUSRECT@@0@Z 1001a090 f     geom.obj
 0001:00019130       ?MatrixTransformPoint@@YAXPAUMATRIX@@PAUSPOINT@@1@Z 1001a130 f     geom.obj
 0001:000191c0       ?MatrixDeltaTransformPoint@@YAXPAUMATRIX@@PAUSPOINT@@1@Z 1001a1c0 f     geom.obj
 0001:00019250       ?MatrixTransformRect@@YAXPAUMATRIX@@PAUSRECT@@1@Z 1001a250 f     geom.obj
 0001:00019320       ?MatrixTransformThickness@@YAJPAUMATRIX@@J@Z 1001a320 f     geom.obj
 0001:00019380       ?MatrixConcat@@YAXPAUMATRIX@@00@Z 1001a380 f     geom.obj
 0001:000195c0       ?IShift@@YAJJH@Z           1001a5c0 f i   geom.obj
 0001:000195e0       ?MatrixEqual@@YAHPAUMATRIX@@0J@Z 1001a5e0 f     geom.obj
 0001:00019680       ?MatrixIdentity@@YAXPAUMATRIX@@@Z 1001a680 f     geom.obj
 0001:000196a0       ?MatrixRotate@@YAXJPAUMATRIX@@@Z 1001a6a0 f     geom.obj
 0001:000196e0       ?MatrixTranslate@@YAXJJPAUMATRIX@@@Z 1001a6e0 f     geom.obj
 0001:00019710       ?MatrixScale@@YAXJJPAUMATRIX@@@Z 1001a710 f     geom.obj
 0001:00019730       ?MatrixMap@@YAXPAUSRECT@@0PAUMATRIX@@@Z 1001a730 f     geom.obj
 0001:00019800       ?MatrixMapAspect@@YAXPAUSRECT@@0PAUMATRIX@@@Z 1001a800 f     geom.obj
 0001:00019920       ?MatrixDecompose@@YAXPAUMATRIX@@PAUSPOINT@@PAJ@Z 1001a920 f     geom.obj
 0001:00019980       ?MatrixIsScaleOnly@@YAHPAUMATRIX@@@Z 1001a980 f     geom.obj
 0001:000199c0       ?MatrixIsIdentity@@YAHPAUMATRIX@@@Z 1001a9c0 f     geom.obj
 0001:00019a00       ?RectInset@@YAXJPAUSRECT@@@Z 1001aa00 f     geom.obj
 0001:00019a50       ?MatrixInvert@@YAXPAUMATRIX@@0@Z 1001aa50 f     geom.obj
 0001:00019cb0       ??0ChunkAlloc@@QAE@HHHJ@Z  1001acb0 f     global.obj
 0001:00019d00       ?CreateChunk@ChunkAlloc@@AAEPAUChunkBlock@@XZ 1001ad00 f     global.obj
 0001:00019d90       ?FreeChunk@ChunkAlloc@@AAEXPAUChunkBlock@@@Z 1001ad90 f     global.obj
 0001:00019de0       ?Alloc@ChunkAlloc@@QAEPAXXZ 1001ade0 f     global.obj
 0001:00019e30       ?Free@ChunkAlloc@@QAEXPAX@Z 1001ae30 f     global.obj
 0001:00019e80       ?FreeEmpties@ChunkAlloc@@QAEXXZ 1001ae80 f     global.obj
 0001:00019ee0       ??2@YAPAXI@Z               1001aee0 f     global.obj
 0001:00019ef0       ??3@YAXPAX@Z               1001aef0 f     global.obj
 0001:00019f00       ??1ChunkAlloc@@QAE@XZ      1001af00 f     global.obj
 0001:00019f50       ?afx_error_exit@@YAXPAUjpeg_common_struct@@@Z 1001af50 f     jpeg.obj
 0001:00019f60       ?afx_jpeg_null@@YAXPAUjpeg_common_struct@@@Z 1001af60 f     jpeg.obj
 0001:00019f70       ?afx_jpeg_null_int@@YAXPAUjpeg_common_struct@@H@Z 1001af70 f     jpeg.obj
 0001:00019f80       ?afx_jpeg_null_char@@YAXPAUjpeg_common_struct@@PAD@Z 1001af80 f     jpeg.obj
 0001:00019f90       ?jpeg_afx_error@@YAPAUjpeg_error_mgr@@PAU1@@Z 1001af90 f     jpeg.obj
 0001:00019fe0       ?Interpolate@@YAJJJJ@Z     1001afe0 f i   morphinter.obj
 0001:0001a000       ?Interpolate@@YAXPAUSRECT@@0J0@Z 1001b000 f     morphinter.obj
 0001:0001a0b0       ?Interpolate@@YAXPAUMATRIX@@0J0@Z 1001b0b0 f     morphinter.obj
 0001:0001a1a0       ?Interpolate@@YAXPAURGBI@@0J0@Z 1001b1a0 f     morphinter.obj
 0001:0001a270       ?Interpolate@@YAXPATSRGB@@0J0@Z 1001b270 f     morphinter.obj
 0001:0001a360       ?Spin@@YAXXZ               1001b360 f i   raster.obj
 0001:0001a370       ?HasBits@SBitmapCore@@QAEHXZ 1001b370 f i   raster.obj
 0001:0001a380       ?LockBits@SBitmapCore@@QAEXXZ 1001b380 f i   raster.obj
 0001:0001a390       ?UnlockBits@SBitmapCore@@QAEXXZ 1001b390 f i   raster.obj
 0001:0001a3a0       ?ExpandColor@@YAXURGB8@@PAURGBI@@@Z 1001b3a0 f i   raster.obj
 0001:0001a3e0       ?PackPix16@@YAGPAURGBI@@@Z 1001b3e0 f i   raster.obj
 0001:0001a410       ?PackPix16A@@YAGPAURGBI@@@Z 1001b410 f i   raster.obj
 0001:0001a440       ?PackPix32@@YAKPAURGBI@@@Z 1001b440 f i   raster.obj
 0001:0001a470       ?PackPix32A@@YAKPAURGBI@@H@Z 1001b470 f i   raster.obj
 0001:0001a4a0       ?UnpackPix16@@YAXKPAURGBI@@@Z 1001b4a0 f i   raster.obj
 0001:0001a4f0       ?Pix16To32@@YAKH@Z         1001b4f0 f i   raster.obj
 0001:0001a520       ?UnpackPix16A@@YAXKPAURGBI@@@Z 1001b520 f i   raster.obj
 0001:0001a580       ?UnpackPix32@@YAXKPAURGBI@@@Z 1001b580 f i   raster.obj
 0001:0001a5c0       ?PixelFormatToDepth@NativeDisplayTester@@SAHH@Z 1001b5c0 f i   raster.obj
 0001:0001a5d0       ?Height@NativeBitmap@@QAEHXZ 1001b5d0 f i   raster.obj
 0001:0001a5e0       ?Width@NativeBitmap@@QAEHXZ 1001b5e0 f i   raster.obj
 0001:0001a5f0       ?PixelFormat@NativeBitmap@@QAEHXZ 1001b5f0 f i   raster.obj
 0001:0001a600       ?Flush@NativeBitmap@@QAEXXZ 1001b600 f i   raster.obj
 0001:0001a610       ?inverted@CBitBuffer@@QAEHXZ 1001b610 f i   raster.obj
 0001:0001a620       ?pixelFormat@CBitBuffer@@QAEHXZ 1001b620 f i   raster.obj
 0001:0001a630       ?baseAddess@CBitBuffer@@QAEPADXZ 1001b630 f i   raster.obj
 0001:0001a640       ?scanLine@CBitBuffer@@QAEHXZ 1001b640 f i   raster.obj
 0001:0001a650       ?width@CBitBuffer@@QAEHXZ  1001b650 f i   raster.obj
 0001:0001a660       ?height@CBitBuffer@@QAEHXZ 1001b660 f i   raster.obj
 0001:0001a670       ?xorg@CBitBuffer@@QAEHXZ   1001b670 f i   raster.obj
 0001:0001a680       ?getSColorInfo@CBitBuffer@@QAEPAUSColorInfo@@XZ 1001b680 f i   raster.obj
 0001:0001a690       ?Flush@CBitBuffer@@QAEXXZ  1001b690 f i   raster.obj
 0001:0001a6a0       ?CreateActiveEdge@CRaster@@AAEPAURActiveEdge@@XZ 1001b6a0 f i   raster.obj
 0001:0001a6b0       ?FreeActiveEdge@CRaster@@AAEXPAURActiveEdge@@@Z 1001b6b0 f i   raster.obj
 0001:0001a6c0       ?CreateRun@CRaster@@AAEPAURRun@@XZ 1001b6c0 f i   raster.obj
 0001:0001a6d0       ?FreeRun@CRaster@@AAEXPAURRun@@@Z 1001b6d0 f i   raster.obj
 0001:0001a6e0       ?CreateRamp@CRaster@@AAEPAURGB8@@XZ 1001b6e0 f i   raster.obj
 0001:0001a6f0       ?FreeRamp@CRaster@@AAEXPAURGB8@@@Z 1001b6f0 f i   raster.obj
 0001:0001a700       ?CreateMap@CRaster@@AAEPAURColorMap@@XZ 1001b700 f i   raster.obj
 0001:0001a710       ?FreeMap@CRaster@@AAEXPAURColorMap@@@Z 1001b710 f i   raster.obj
 0001:0001a720       ?Set@REdge@@QAEXPAUCURVE@@@Z 1001b720 f i   raster.obj
 0001:0001a770       ?PollSound@@YAXXZ          1001b770 f i   raster.obj
 0001:0001a780       ?BuildRenderTables@@YAXXZ  1001b780 f     raster.obj
 0001:0001a8e0       ?LimitAbs@@YAJJJ@Z         1001b8e0 f i   raster.obj
 0001:0001a910       ?CalcLimit@@YAXAAHAAJJJ@Z  1001b910 f i   raster.obj
 0001:0001a970       ?CompositeRGBPixel@@YAXPAURGBI@@0@Z 1001b970 f i   raster.obj
 0001:0001a9b0       ?CompositeRGB@@YAXPAURGBI@@0H@Z 1001b9b0 f     raster.obj
 0001:0001aa10       ?CompositeRGBSolid@@YAXPAURGBI@@0H@Z 1001ba10 f     raster.obj
 0001:0001aa70       ?IndexToRGB@CRaster@@AAEXHPAURGBI@@@Z 1001ba70 f i   raster.obj
 0001:0001aab0       ?RGBToIndex@CRaster@@AAEHPAURGBI@@@Z 1001bab0 f i   raster.obj
 0001:0001aaf0       ?DrawRGBAPixel@CRaster@@AAEXJPAURGBI@@@Z 1001baf0 f i   raster.obj
 0001:0001ab90       ?DrawRGBASlab@CRaster@@AAEXJJPAURGBI@@@Z 1001bb90 f     raster.obj
 0001:0001abf0       ?SetUp@RColor@@QAEXPAVCRaster@@@Z 1001bbf0 f     raster.obj
 0001:0001ac20       ?FreeCache@RColor@@QAEXXZ  1001bc20 f     raster.obj
 0001:0001ac90       ?PinColor@@YAHH@Z          1001bc90 f i   raster.obj
 0001:0001acb0       ?ExpandPat@@YAXHHKKHHPAK@Z 1001bcb0 f     raster.obj
 0001:0001aee0       ?BuildMapChannel@@YAXHHPAE@Z 1001bee0 f     raster.obj
 0001:0001af30       ?ApplyColorMap@@YAXPAURColorMap@@PAURGBI@@@Z 1001bf30 f     raster.obj
 0001:0001b010       ?ApplyColorMap@@YAXPAURColorMap@@PAURGBI@@H@Z 1001c010 f     raster.obj
 0001:0001b130       ?StepLine@@YAXPAURActiveEdge@@J@Z 1001c130 f     raster.obj
 0001:0001b150       ?StepCurve@@YAXPAURActiveEdge@@J@Z 1001c150 f     raster.obj
 0001:0001b1b0       ?StepCurveInterpolate@@YAXPAURActiveEdge@@J@Z 1001c1b0 f     raster.obj
 0001:0001b260       ?SetUp@RActiveEdge@@QAEXPAUREdge@@JH@Z 1001c260 f     raster.obj
 0001:0001b3e0       ?Init@RRun@@QAEXJJ@Z       1001c3e0 f i   raster.obj
 0001:0001b410       ?AddColor@RRun@@QAEXPAURColor@@@Z 1001c410 f i   raster.obj
 0001:0001b4a0       ?CalcColor@RRun@@QAEXJJPAURGBI@@@Z 1001c4a0 f     raster.obj
 0001:0001b690       ?Split@RRun@@QAEPAU1@PAVCRaster@@J@Z 1001c690 f i   raster.obj
 0001:0001b720       ?Init@RPixel@@QAEXPAVCRaster@@J@Z 1001c720 f i   raster.obj
 0001:0001b740       ?Paint@RPixel@@QAEXXZ      1001c740 f i   raster.obj
 0001:0001b790       ?Add@RPixel@@QAEXPAURGBI@@HJH@Z 1001c790 f i   raster.obj
 0001:0001b800       ??0CRaster@@QAE@XZ         1001c800 f     raster.obj
 0001:0001b900       ??1CRaster@@QAE@XZ         1001c900 f     raster.obj
 0001:0001b9a0       ?FreeEmpties@CRaster@@QAEXXZ 1001c9a0 f     raster.obj
 0001:0001b9d0       ?BitsValid@CRaster@@QAEHXZ 1001c9d0 f     raster.obj
 0001:0001b9f0       ?Attach@CRaster@@QAEXPAVCBitBuffer@@PAUSRECT@@H@Z 1001c9f0 f     raster.obj
 0001:0001bb20       ?UseAlphaChannel@CRaster@@QAEXXZ 1001cb20 f     raster.obj
 0001:0001bb40       ?BeginPaint@CRaster@@QAEXXZ 1001cb40 f     raster.obj
 0001:0001bba0       ?AddEdges@CRaster@@QAEXPAUREdge@@@Z 1001cba0 f     raster.obj
 0001:0001bbf0       ?AddEdges@CRaster@@QAEXPAUREdge@@PAURColor@@1@Z 1001cbf0 f     raster.obj
 0001:0001bc30       ?AddActive@CRaster@@AAEXXZ 1001cc30 f     raster.obj
 0001:0001bce0       ?SortActive@CRaster@@AAEXXZ 1001cce0 f     raster.obj
 0001:0001bd60       ?GetBackground1@@YAXPAVCRaster@@JJPAURGBI@@@Z 1001cd60 f     raster.obj
 0001:0001be00       ?GetBackground2@@YAXPAVCRaster@@JJPAURGBI@@@Z 1001ce00 f     raster.obj
 0001:0001bea0       ?GetBackground4@@YAXPAVCRaster@@JJPAURGBI@@@Z 1001cea0 f     raster.obj
 0001:0001bf40       ?GetBackground8@@YAXPAVCRaster@@JJPAURGBI@@@Z 1001cf40 f     raster.obj
 0001:0001bfc0       ?GetBackground16@@YAXPAVCRaster@@JJPAURGBI@@@Z 1001cfc0 f     raster.obj
 0001:0001c040       ?GetBackground16A@@YAXPAVCRaster@@JJPAURGBI@@@Z 1001d040 f     raster.obj
 0001:0001c0c0       ?GetBackground24@@YAXPAVCRaster@@JJPAURGBI@@@Z 1001d0c0 f     raster.obj
 0001:0001c120       ?GetBackground32@@YAXPAVCRaster@@JJPAURGBI@@@Z 1001d120 f     raster.obj
 0001:0001c190       ?GetBackgroundWhite@@YAXPAVCRaster@@JJPAURGBI@@@Z 1001d190 f     raster.obj
 0001:0001c1e0       ?SetYCoord@CRaster@@AAEXJ@Z 1001d1e0 f     raster.obj
 0001:0001c240       ?DitherRGBSlabNone@@YAXPAVCRaster@@JJPAURGBI@@PAE@Z 1001d240 f     raster.obj
 0001:0001c2a0       ?DitherRGBSlabOrdered@@YAXPAVCRaster@@JJPAURGBI@@PAE@Z 1001d2a0 f     raster.obj
 0001:0001c340       ?DitherRGBSlabErrorDiffusion@@YAXPAVCRaster@@JJPAURGBI@@PAE@Z 1001d340 f     raster.obj
 0001:0001c530       ?ApplyRGBPattern@@YAXHHHHPAURGBI@@@Z 1001d530 f     raster.obj
 0001:0001c610       ?DrawRGBSlab1@@YAXPAVCRaster@@JJPAURGBI@@@Z 1001d610 f     raster.obj
 0001:0001c6e0       ?DrawRGBSlab2@@YAXPAVCRaster@@JJPAURGBI@@@Z 1001d6e0 f     raster.obj
 0001:0001c7a0       ?DrawRGBSlab4@@YAXPAVCRaster@@JJPAURGBI@@@Z 1001d7a0 f     raster.obj
 0001:0001c860       ?DrawRGBSlab8@@YAXPAVCRaster@@JJPAURGBI@@@Z 1001d860 f     raster.obj
 0001:0001c890       ?DrawRGBSlab16@@YAXPAVCRaster@@JJPAURGBI@@@Z 1001d890 f     raster.obj
 0001:0001c980       ?DrawRGBSlab16A@@YAXPAVCRaster@@JJPAURGBI@@@Z 1001d980 f     raster.obj
 0001:0001cac0       ?DrawRGBSlab24@@YAXPAVCRaster@@JJPAURGBI@@@Z 1001dac0 f     raster.obj
 0001:0001cb20       ?DrawRGBSlab32@@YAXPAVCRaster@@JJPAURGBI@@@Z 1001db20 f     raster.obj
 0001:0001cb80       ?DrawRGBSlab32A@@YAXPAVCRaster@@JJPAURGBI@@@Z 1001db80 f     raster.obj
 0001:0001cbe0       ?Blt8to8D@@YAXUBltInfo@@AAUSPOINT@@HPAE@Z 1001dbe0 f     raster.obj
 0001:0001cd80       ?Blt8to16@@YAXUBltInfo@@AAUSPOINT@@HPAG@Z 1001dd80 f     raster.obj
 0001:0001ce90       ?Blt8to16A@@YAXUBltInfo@@AAUSPOINT@@HPAG@Z 1001de90 f     raster.obj
 0001:0001cfa0       ?Blt8to32@@YAXUBltInfo@@AAUSPOINT@@HPAK@Z 1001dfa0 f     raster.obj
 0001:0001d070       ?Blt16to8D@@YAXUBltInfo@@AAUSPOINT@@HPAE@Z 1001e070 f     raster.obj
 0001:0001d200       ?Blt16to16@@YAXUBltInfo@@AAUSPOINT@@HPAG@Z 1001e200 f     raster.obj
 0001:0001d2f0       ?Blt16to16A@@YAXUBltInfo@@AAUSPOINT@@HPAG@Z 1001e2f0 f     raster.obj
 0001:0001d3a0       ?Blt16to32@@YAXUBltInfo@@AAUSPOINT@@HPAK@Z 1001e3a0 f     raster.obj
 0001:0001d490       ?Blt32to8D@@YAXUBltInfo@@AAUSPOINT@@HPAE@Z 1001e490 f     raster.obj
 0001:0001d610       ?Blt32to16@@YAXUBltInfo@@AAUSPOINT@@HPAG@Z 1001e610 f     raster.obj
 0001:0001d6f0       ?Blt32to16A@@YAXUBltInfo@@AAUSPOINT@@HPAG@Z 1001e6f0 f     raster.obj
 0001:0001d7d0       ?Blt32to32@@YAXUBltInfo@@AAUSPOINT@@HPAK@Z 1001e7d0 f     raster.obj
 0001:0001d8b0       ?MakeWideColor@@YAKURGB8@@@Z 1001e8b0 f i   raster.obj
 0001:0001d8e0       ?Pix16ToWide@@YAKK@Z       1001e8e0 f i   raster.obj
 0001:0001d920       ?Pix32ToWide@@YAKK@Z       1001e920 f i   raster.obj
 0001:0001d950       ?WideToRGBI@@YAXKPAURGBI@@@Z 1001e950 f i   raster.obj
 0001:0001d980       ?Blt8toIS@@YAXUBltInfo@@AAUSPOINT@@HPAURGBI@@@Z 1001e980 f     raster.obj
 0001:0001db30       ?Blt16toIS@@YAXUBltInfo@@AAUSPOINT@@HPAURGBI@@@Z 1001eb30 f     raster.obj
 0001:0001dcf0       ?Blt32toIS@@YAXUBltInfo@@AAUSPOINT@@HPAURGBI@@@Z 1001ecf0 f     raster.obj
 0001:0001de70       ?Blt8toISA@@YAXUBltInfo@@AAUSPOINT@@HPAURGBI@@@Z 1001ee70 f     raster.obj
 0001:0001e090       ?Blt16toISA@@YAXUBltInfo@@AAUSPOINT@@HPAURGBI@@@Z 1001f090 f     raster.obj
 0001:0001e2b0       ?Blt32toISA@@YAXUBltInfo@@AAUSPOINT@@HPAURGBI@@@Z 1001f2b0 f     raster.obj
 0001:0001e4b0       ?BltXtoI@@YAXUBltInfo@@AAUSPOINT@@HPAURGBI@@@Z 1001f4b0 f     raster.obj
 0001:0001e4c0       ?Blt8toI@@YAXUBltInfo@@AAUSPOINT@@HPAURGBI@@@Z 1001f4c0 f     raster.obj
 0001:0001e5b0       ?Blt16toI@@YAXUBltInfo@@AAUSPOINT@@HPAURGBI@@@Z 1001f5b0 f     raster.obj
 0001:0001e6c0       ?Blt32toI@@YAXUBltInfo@@AAUSPOINT@@HPAURGBI@@@Z 1001f6c0 f     raster.obj
 0001:0001e7b0       ?DrawBitmapSlab@@YAXPAURColor@@JJ@Z 1001f7b0 f     raster.obj
 0001:0001ed90       ?BuildBitmapSlab@@YAXPAURColor@@JJPAURGBI@@@Z 1001fd90 f     raster.obj
 0001:0001f0e0       ?CalcBitmapPixel@@YAXPAURColor@@JPAURGBI@@@Z 100200e0 f     raster.obj
 0001:0001f1f0       ?CalcSolidPixel@@YAXPAURColor@@JPAURGBI@@@Z 100201f0 f     raster.obj
 0001:0001f210       ?BuildSolidSlab@@YAXPAURColor@@JJPAURGBI@@@Z 10020210 f     raster.obj
 0001:0001f240       ?CalcGradientPixel@@YAXPAURColor@@JPAURGBI@@@Z 10020240 f     raster.obj
 0001:0001f2f0       ?BuildLinearGradientSlab@@YAXPAURColor@@JJPAURGBI@@@Z 100202f0 f     raster.obj
 0001:0001f3b0       ?BuildRadialGradientSlab@@YAXPAURColor@@JJPAURGBI@@@Z 100203b0 f     raster.obj
 0001:0001f500       ?BuildGradientSlab@@YAXPAURColor@@JJPAURGBI@@@Z 10020500 f     raster.obj
 0001:0001f520       ?DrawGradientSlab@@YAXPAURColor@@JJ@Z 10020520 f     raster.obj
 0001:0001f5c0       ?CompositeSolidSlab@@YAXPAURColor@@JJPAURGBI@@@Z 100205c0 f     raster.obj
 0001:0001f5e0       ?CompositeGradientSlab@@YAXPAURColor@@JJPAURGBI@@@Z 100205e0 f     raster.obj
 0001:0001f640       ?CompositeBitmapSlab@@YAXPAURColor@@JJPAURGBI@@@Z 10020640 f     raster.obj
 0001:0001f690       ?DrawSolidSlab@@YAXPAKKJ@Z 10020690 f i   raster.obj
 0001:0001f740       ?DrawSolidSlab1@@YAXPAURColor@@JJ@Z 10020740 f     raster.obj
 0001:0001f7a0       ?DrawSolidSlab2@@YAXPAURColor@@JJ@Z 100207a0 f     raster.obj
 0001:0001f800       ?DrawSolidSlab4@@YAXPAURColor@@JJ@Z 10020800 f     raster.obj
 0001:0001f860       ?DrawSolidSlab8@@YAXPAURColor@@JJ@Z 10020860 f     raster.obj
 0001:0001f8d0       ?DrawSolidSlab16@@YAXPAURColor@@JJ@Z 100208d0 f     raster.obj
 0001:0001f980       ?DrawSolidSlab24@@YAXPAURColor@@JJ@Z 10020980 f     raster.obj
 0001:0001fa00       ?DrawSolidSlab32@@YAXPAURColor@@JJ@Z 10020a00 f     raster.obj
 0001:0001fa80       ?DrawDitherSlab@@YAXPAURColor@@JJ@Z 10020a80 f     raster.obj
 0001:0001fb30       ?Clear@ColorTransform@@QAEXXZ 10020b30 f     raster.obj
 0001:0001fb60       ?ApplyChannel@@YAHHHH@Z    10020b60 f     raster.obj
 0001:0001fb90       ?ApplyChannelB@@YAHHHH@Z   10020b90 f     raster.obj
 0001:0001fbc0       ?Apply@ColorTransform@@QAEXPAURGBI@@H@Z 10020bc0 f     raster.obj
 0001:0001fd90       ?Apply@ColorTransform@@QAEXPAUGradColorRamp@@@Z 10020d90 f     raster.obj
 0001:0001fe90       ?CalcFlags@ColorTransform@@QAEXXZ 10020e90 f     raster.obj
 0001:0001fee0       ?Concat@ColorTransform@@QAEXPAV1@@Z 10020ee0 f     raster.obj
 0001:0001ffa0       ?Apply@ColorTransform@@QAE?ATSRGB@@T2@@Z 10020fa0 f     raster.obj
 0001:000200b0       ?Equal@@YAHPAVColorTransform@@0@Z 100210b0 f     raster.obj
 0001:00020120       ?BuildCache@RColor@@QAEXXZ 10021120 f     raster.obj
 0001:00020930       ?CompositeSlab@CRaster@@AAEXJJPAPAURColor@@H@Z 10021930 f     raster.obj
 0001:00020b00       ?PaintSlab@CRaster@@AAEXJ@Z 10021b00 f     raster.obj
 0001:00020c70       ?ShowColor@CRaster@@AAEXPAURColor@@J@Z 10021c70 f i   raster.obj
 0001:00020cd0       ?HideColor@CRaster@@AAEXPAURColor@@J@Z 10021cd0 f i   raster.obj
 0001:00020d20       ?DoEdgeEdgeRule@@YAXPAVCRaster@@PAURActiveEdge@@@Z 10021d20 f     raster.obj
 0001:00020d90       ?DoEdgeEvenOddRule@@YAXPAVCRaster@@PAURActiveEdge@@@Z 10021d90 f     raster.obj
 0001:00020dd0       ?DoEdgeWindingRule@@YAXPAVCRaster@@PAURActiveEdge@@@Z 10021dd0 f     raster.obj
 0001:00020e20       ?PaintActive@CRaster@@AAEXXZ 10021e20 f     raster.obj
 0001:00020f00       ?PaintAARuns@CRaster@@AAEXXZ 10021f00 f     raster.obj
 0001:000212c0       ?PaintBits@CRaster@@QAEXXZ 100222c0 f     raster.obj
 0001:00021380       ?Flush@CRaster@@QAEXXZ     10022380 f     raster.obj
 0001:000213a0       ?FillBackground@CRaster@@QAEXTSRGB@@@Z 100223a0 f     raster.obj
 0001:000215e0       ?SBitmapBitsPerPixel@@YAHH@Z 100225e0 f     sbitmap.obj
 0001:00021630       ?SBitmapCalcRowbytes@@YAHHH@Z 10022630 f     sbitmap.obj
 0001:000216b0       ?GetRGBPixel@SBitmapCore@@QAEXHHPAURGBI@@@Z 100226b0 f     sbitmap.obj
 0001:00021800       ?GetSSRGBPixel@SBitmapCore@@QAEXJJPAURGBI@@@Z 10022800 f     sbitmap.obj
 0001:00021ca0       ?PIInit@SBitmapCore@@QAEXXZ 10022ca0 f     sbitmap.obj
 0001:00021cb0       ?HasTransparent@@YAHPAUSColorTable@@@Z 10022cb0 f     sbitmap.obj
 0001:00021ce0       ?PICreate@SBitmapCore@@QAEHHHHPAUSColorTable@@H@Z 10022ce0 f     sbitmap.obj
 0001:00021db0       ?PIFree@SBitmapCore@@QAEXXZ 10022db0 f     sbitmap.obj
 0001:00021de0       ?SBitmapSwapBits@@YAXPAXJH@Z 10022de0 f     sbitmap.obj
 0001:00021e70       ?Clear@STransform@@QAEXXZ  10022e70 f i   sdisplay.obj
 0001:00021e90       ?Equal@@YAHPAUSTransform@@0@Z 10022e90 f i   sdisplay.obj
 0001:00021ed0       ??0PlaceInfo@@QAE@XZ       10022ed0 f i   sdisplay.obj
 0001:00021ef0       ?FreeEdge@DisplayList@@QAEXPAUREdge@@@Z 10022ef0 f i   sdisplay.obj
 0001:00021f00       ?CreateObject@DisplayList@@QAEPAUSObject@@XZ 10022f00 f i   sdisplay.obj
 0001:00021f10       ?FreeObject@DisplayList@@QAEXPAUSObject@@@Z 10022f10 f i   sdisplay.obj
 0001:00021f20       ?ScriptAddRefCount@ScriptPlayer@@QAEHXZ 10022f20 f i   sdisplay.obj
 0001:00021f50       ??0URLBuilder@@QAE@XZ      10022f50 f i   sdisplay.obj
 0001:00021f60       ??1URLBuilder@@QAE@XZ      10022f60 f i   sdisplay.obj
 0001:00021f70       ?AddThread@DisplayList@@QAEXPAVScriptThread@@@Z 10022f70 f     sdisplay.obj
 0001:00021f90       ?RectArea@@YAJPAUSRECT@@@Z 10022f90 f     sdisplay.obj
 0001:00021fb0       ?UnionArea@@YAJPAUSRECT@@0@Z 10022fb0 f i   sdisplay.obj
 0001:00021fe0       ?RectTestOverlap@@YAHPAUSRECT@@0@Z 10022fe0 f     sdisplay.obj
 0001:00022010       ?MergeDirtyList@DisplayList@@QAEHH@Z 10023010 f     sdisplay.obj
 0001:000221c0       ?DecomposeRect@@YAXPAUSRECT@@0@Z 100231c0 f     sdisplay.obj
 0001:00022370       ?DecomposeDirtyList@DisplayList@@QAEXXZ 10023370 f     sdisplay.obj
 0001:00022410       ?InvalidateRect@DisplayList@@QAEXPAUSRECT@@@Z 10023410 f     sdisplay.obj
 0001:00022510       ?FreeCache@@YAXPAUSObject@@@Z 10023510 f     sdisplay.obj
 0001:00022540       ?FreeCache@DisplayList@@QAEXXZ 10023540 f     sdisplay.obj
 0001:000225a0       ?UpdateDevViewRect@DisplayList@@QAEXXZ 100235a0 f     sdisplay.obj
 0001:00022630       ?CalcBitsDirty@DisplayList@@QAEXPAUSRECT@@0@Z 10023630 f     sdisplay.obj
 0001:000226a0       ?UpdateRect@DisplayList@@QAEXPAUSRECT@@@Z 100236a0 f     sdisplay.obj
 0001:00022a50       ?CalcUpdate@DisplayList@@QAEXXZ 10023a50 f     sdisplay.obj
 0001:00022a80       ?Update@DisplayList@@QAEXXZ 10023a80 f     sdisplay.obj
 0001:00022b30       ?MoveObject@DisplayList@@QAEPAUSObject@@PAU2@PAUPlaceInfo@@@Z 10023b30 f     sdisplay.obj
 0001:00022c10       ?DoRemove@DisplayList@@QAEXPAPAUSObject@@@Z 10023c10 f     sdisplay.obj
 0001:00022c70       ?RemoveObject@DisplayList@@QAEXPAUSObject@@G@Z 10023c70 f     sdisplay.obj
 0001:00022cb0       ?BeginHold@DisplayList@@QAEXPAUSObject@@@Z 10023cb0 f     sdisplay.obj
 0001:00022cd0       ?FinishHold@DisplayList@@QAEXXZ 10023cd0 f     sdisplay.obj
 0001:00022ef0       ?HitTest@DisplayList@@QAEPAUSObject@@PAUSPOINT@@@Z 10023ef0 f     sdisplay.obj
 0001:00022f60       ?HitButton@DisplayList@@QAEPAUSObject@@PAUSPOINT@@@Z 10023f60 f     sdisplay.obj
 0001:00022ff0       ??0ActionList@@QAE@XZ      10023ff0 f     sdisplay.obj
 0001:00023030       ??1ActionList@@QAE@XZ      10024030 f     sdisplay.obj
 0001:00023050       ?RemoveThread@ActionList@@QAEXPAVScriptThread@@@Z 10024050 f     sdisplay.obj
 0001:00023090       ?PushAction@ActionList@@QAEXPAEPAVScriptThread@@@Z 10024090 f     sdisplay.obj
 0001:000231a0       ?Invalidate@DisplayList@@QAEXXZ 100241a0 f i   sdisplay.obj
 0001:000231b0       ?PushAction@DisplayList@@QAEXPAEPAVScriptThread@@@Z 100241b0 f i   sdisplay.obj
 0001:000231c0       ?SetDisplay@ScriptThread@@QAEXPAVDisplayList@@@Z 100241c0 f i   sdisplay.obj
 0001:000231e0       ??0DisplayList@@QAE@XZ     100241e0 f     sdisplay.obj
 0001:00023430       ??1DisplayList@@QAE@XZ     10024430 f     sdisplay.obj
 0001:00023510       ?RemoveThread@DisplayList@@QAEXPAVScriptThread@@@Z 10024510 f     sdisplay.obj
 0001:00023590       ?Reset@DisplayList@@QAEXXZ 10024590 f     sdisplay.obj
 0001:000235c0       ?SetBits@DisplayList@@QAEXPAVCBitBuffer@@@Z 100245c0 f     sdisplay.obj
 0001:000235f0       ?ModifyCamera@DisplayList@@QAEXXZ 100245f0 f     sdisplay.obj
 0001:00023610       ?SetBackgroundColor@DisplayList@@QAEXTSRGB@@H@Z 10024610 f     sdisplay.obj
 0001:00023650       ?PlaceObject@DisplayList@@QAEPAUSObject@@PAU2@PAUPlaceInfo@@@Z 10024650 f     sdisplay.obj
 0001:00023ab0       ?UpdateButton@DisplayList@@QAEXPAUSObject@@H@Z 10024ab0 f     sdisplay.obj
 0001:00023cf0       ?DoButtonAction@DisplayList@@QAEXPAUSObject@@H@Z 10024cf0 f     sdisplay.obj
 0001:00023df0       ?DoButtonStateTransition@DisplayList@@QAEXPAUSObject@@H@Z 10024df0 f     sdisplay.obj
 0001:00023ee0       ?SetButton@DisplayList@@QAEHPAUSObject@@H@Z 10024ee0 f     sdisplay.obj
 0001:00024220       ?SetCamera@DisplayList@@QAEXPAUSRECT@@0HH@Z 10025220 f     sdisplay.obj
 0001:00024490       ?Get@REdge@@QAEXPAUCURVE@@@Z 10025490 f i   sobject.obj
 0001:000244d0       ?Concat@STransform@@QAEXPAU1@@Z 100254d0 f i   sobject.obj
 0001:00024500       ?FreeColor@DisplayList@@QAEXPAURColor@@@Z 10025500 f i   sobject.obj
 0001:00024520       ?CreateEdge@DisplayList@@QAEPAUREdge@@XZ 10025520 f i   sobject.obj
 0001:00024530       ?GetDWord@SParser@@QAEKXZ  10025530 f i   sobject.obj
 0001:00024560       ?Interpolate@@YAXPAUSPOINT@@0J0@Z 10025560 f i   sobject.obj
 0001:000245c0       ?ResolveFontName@@YAXPADPBD@Z 100255c0 f     sobject.obj
 0001:00024690       ?AddCurve@SCharacterParser@@QAEXPAUCURVE@@@Z 10025690 f     sobject.obj
 0001:00024950       ?CreateClipColor@@YAPAURColor@@PAVDisplayList@@PAPAU1@@Z 10025950 f     sobject.obj
 0001:000249b0       ?MakeClipper@SCharacterParser@@QAEXXZ 100259b0 f     sobject.obj
 0001:00024a10       ?BuildEdges@SCharacterParser@@QAEXHPAUSRECT@@@Z 10025a10 f     sobject.obj
 0001:00024c20       ?BuildMorphEdges@SCharacterParser@@QAEXPAUSRECT@@@Z 10025c20 f     sobject.obj
 0001:00025010       ?FreeCache@SObject@@QAEXXZ 10026010 f     sobject.obj
 0001:00025080       ??_GEditText@@QAEPAXI@Z    10026080 f i   sobject.obj
 0001:000250a0       ??_GScriptThread@@QAEPAXI@Z 100260a0 f i   sobject.obj
 0001:000250c0       ??_GScriptPlayer@@QAEPAXI@Z 100260c0 f i   sobject.obj
 0001:000250e0       ?CalcDevBounds@SObject@@QAEXPAUMATRIX@@@Z 100260e0 f     sobject.obj
 0001:00025160       ?EditTextMouse@SObject@@QAEXPAUSPOINT@@H@Z 10026160 f     sobject.obj
 0001:00025170       ?DrawEditText@SObject@@QAEHPAUSTransform@@@Z 10026170 f     sobject.obj
 0001:00025190       ?Modify@SObject@@QAEXXZ    10026190 f     sobject.obj
 0001:000251b0       ?CalcUpdate@SObject@@QAEXPAUMATRIX@@H@Z 100261b0 f     sobject.obj
 0001:00025240       ?CalcButtonBounds@SObject@@QAEXPAUSRECT@@@Z 10026240 f     sobject.obj
 0001:00025480       ?GetBoundingBox@@YAXPAUSObject@@PAUMATRIX@@PAUSRECT@@@Z 10026480 f     sobject.obj
 0001:000254f0       ?GetBoundingBox@@YAXPAUSObject@@PAUSRECT@@@Z 100264f0 f     sobject.obj
 0001:00025520       ?AddRectEdge@@YAXPAUSPOINT@@0PAURColor@@PAVDisplayList@@PAPAUREdge@@PAVSStroker@@@Z 10026520 f     sobject.obj
 0001:000255f0       ?AddRect@@YAXPAUSRECT@@PAUMATRIX@@PAURColor@@PAVDisplayList@@PAPAUREdge@@PAVSStroker@@@Z 100265f0 f     sobject.obj
 0001:00025700       ?Free@SObject@@QAEXXZ      10026700 f     sobject.obj
 0001:00025870       ?BuildEdges@SObject@@QAEXPAUSTransform@@@Z 10026870 f     sobject.obj
 0001:00025e10       ?ScrollEditText@SObject@@QAEHPAVScriptThread@@PADHAAH@Z 10026e10 f     sobject.obj
 0001:00025f50       ?UpdateEditText@SObject@@QAEXPAVScriptThread@@PAD1H@Z 10026f50 f     sobject.obj
 0001:00026000       ?HitTestOne@SObject@@QAEHPAUSTransform@@PAUSPOINT@@@Z 10027000 f     sobject.obj
 0001:00026190       ?FreeChildren@SObject@@QAEXXZ 10027190 f     sobject.obj
 0001:00026200       ?DrawClipBracket@SObject@@QAEPAU1@PAVCRaster@@USTransform@@PAURColor@@@Z 10027200 f     sobject.obj
 0001:00026300       ?HitClipper@SObject@@QAEPAU1@USTransform@@PAUSPOINT@@@Z 10027300 f     sobject.obj
 0001:00026360       ?Draw@SObject@@QAEXPAVCRaster@@USTransform@@PAURColor@@@Z 10027360 f     sobject.obj
 0001:00026420       ?HitTest@SObject@@QAEXAAPAU1@USTransform@@PAUSPOINT@@@Z 10027420 f     sobject.obj
 0001:000264b0       ?HitButton@SObject@@QAEXAAPAU1@USTransform@@PAUSPOINT@@@Z 100274b0 f     sobject.obj
 0001:00026800       ?HasTransparency@ColorTransform@@QAEHXZ 10027800 f i   splay.obj
 0001:00026820       ?AttachData@ScriptThread@@QAEPAEJJ@Z 10027820 f i   splay.obj
 0001:00026830       ?ReleaseData@ScriptThread@@QAEXAAPAE@Z 10027830 f i   splay.obj
 0001:00026840       ?GetFrame@ScriptThread@@QAEHXZ 10027840 f i   splay.obj
 0001:00026850       ?ScriptSubRefCount@ScriptPlayer@@QAEHXZ 10027850 f i   splay.obj
 0001:00026880       ?CreateCharacter@ScriptPlayer@@QAEPAUSCharacter@@XZ 10027880 f i   splay.obj
 0001:00026890       ?ScriptComplete@ScriptPlayer@@QAEHXZ 10027890 f i   splay.obj
 0001:000268b0       ?GetTag@SParser@@QAEHJ@Z   100278b0 f     splay.obj
 0001:00026960       ?GetData@SParser@@QAEJPAXJ@Z 10027960 f     splay.obj
 0001:000269a0       ?GetColor@SParser@@QAEXPAURGBI@@H@Z 100279a0 f     splay.obj
 0001:00026a20       ?GetColor@SParser@@QAE?ATSRGB@@H@Z 10027a20 f     splay.obj
 0001:00026a80       ?GetStringP@SParser@@QAEPADXZ 10027a80 f     splay.obj
 0001:00026ab0       ?InitBits@SParser@@QAEXXZ  10027ab0 f     splay.obj
 0001:00026ac0       ?GetBits@SParser@@QAEKH@Z  10027ac0 f     splay.obj
 0001:00026b40       ?GetSBits@SParser@@QAEJH@Z 10027b40 f     splay.obj
 0001:00026b70       ??0SShapeParser@@QAE@PAVScriptPlayer@@PAEJPAUMATRIX@@@Z 10027b70 f     splay.obj
 0001:00026c40       ??1SShapeParser@@QAE@XZ    10027c40 f     splay.obj
 0001:00026ca0       ?SetupColor@SShapeParser@@QAEXPAURColor@@@Z 10027ca0 f     splay.obj
 0001:00026eb0       ?ClearState@ScriptThread@@QAEXXZ 10027eb0 f     splay.obj
 0001:00026ee0       ?CloneSprite@ScriptThread@@QAEXPAV1@PADH@Z 10027ee0 f     splay.obj
 0001:00027040       ?RemoveObject@ScriptThread@@QAEXXZ 10028040 f     splay.obj
 0001:00027190       ?ReadJPEGTables@@YAXPAUJPEGPlayState@@PAVSParser@@@Z 10028190 f     splay.obj
 0001:00027210       ?ReadJPEGImage@@YAXPAUJPEGPlayState@@PAUSCharacter@@H@Z 10028210 f     splay.obj
 0001:00027310       ?DefineJPEGTables@ScriptThread@@QAEXXZ 10028310 f     splay.obj
 0001:00027360       ?BuildBits@ScriptThread@@QAEXPAUSCharacter@@@Z 10028360 f     splay.obj
 0001:00027750       ?StopPlay@ScriptThread@@QAEXXZ 10028750 f     splay.obj
 0001:00027760       ?FreeCharacter@ScriptPlayer@@QAEXPAUSCharacter@@@Z 10028760 f     splay.obj
 0001:00027790       ?FreeCache@ScriptPlayer@@QAEXXZ 10028790 f     splay.obj
 0001:000277f0       ?FreeAll@ScriptPlayer@@QAEXXZ 100287f0 f     splay.obj
 0001:000278c0       ?FindCharacter@ScriptPlayer@@QAEPAUSCharacter@@G@Z 100288c0 f     splay.obj
 0001:000278f0       ?CreateCharacter@ScriptPlayer@@QAEPAUSCharacter@@G@Z 100288f0 f     splay.obj
 0001:00027970       ?FreeCharacter@ScriptPlayer@@QAEXG@Z 10028970 f     splay.obj
 0001:000279d0       ?MyLdExp@@YANNH@Z          100289d0 f     splay.obj
 0001:00027a20       ?CubeRoot@@YANN@Z          10028a20 f     splay.obj
 0001:00027b60       ?SkipPrefix@@YAPADPAD0@Z   10028b60 f     splay.obj
 0001:00027bb0       ?StrEqual@@YAHPBD0@Z       10028bb0 f     splay.obj
 0001:00027be0       ?ToInt@@YAHPBD@Z           10028be0 f     splay.obj
 0001:00027c10       ?FreeStr@@YAXPAD@Z         10028c10 f     splay.obj
 0001:00027c20       ?CreateStr@@YAPADPBD@Z     10028c20 f     splay.obj
 0001:00027c70       ?CreateStr@@YAPADPBDH@Z    10028c70 f     splay.obj
 0001:00027cb0       ?FindVariable@ScriptThread@@QAEPAVScriptVariable@@PAD@Z 10028cb0 f     splay.obj
 0001:00027d00       ?SetVariable@ScriptThread@@QAEXPAD0H@Z 10028d00 f     splay.obj
 0001:00027df0       ?GetRect@SParser@@QAEXPAUSRECT@@@Z 10028df0 f     splay.obj
 0001:00027e80       ?GetMatrix@SParser@@QAEXPAUMATRIX@@@Z 10028e80 f     splay.obj
 0001:00027fa0       ?GetColorTransform@SParser@@QAEXPAVColorTransform@@H@Z 10028fa0 f     splay.obj
 0001:00028100       ?GetString@SParser@@QAEPADXZ 10029100 f     splay.obj
 0001:00028160       ?GetStyles@SShapeParser@@QAEHXZ 10029160 f     splay.obj
 0001:000285e0       ?GetMorphStyles@SShapeParser@@QAEHXZ 100295e0 f     splay.obj
 0001:00028c30       ?GetEdge@SShapeParser@@QAEHPAUCURVE@@@Z 10029c30 f     splay.obj
 0001:00028ee0       ??0ScriptThread@@QAE@XZ    10029ee0 f     splay.obj
 0001:00028f30       ?ClearVariables@ScriptThread@@QAEXXZ 10029f30 f     splay.obj
 0001:00028f80       ?PlaceObject@ScriptThread@@QAEXXZ 10029f80 f     splay.obj
 0001:00029060       ?PlaceObject2@ScriptThread@@QAEXXZ 1002a060 f     splay.obj
 0001:000291e0       ?RemoveSprite@ScriptThread@@QAEXPAV1@H@Z 1002a1e0 f     splay.obj
 0001:00029370       ?DefineShape@ScriptThread@@QAEXXZ 1002a370 f     splay.obj
 0001:000293c0       ?DefineMorphShape@ScriptThread@@QAEXXZ 1002a3c0 f     splay.obj
 0001:00029420       ?DefineButton@ScriptThread@@QAEXXZ 1002a420 f     splay.obj
 0001:00029490       ?DefineButtonExtra@ScriptThread@@QAEXH@Z 1002a490 f     splay.obj
 0001:00029510       ?DefineSprite@ScriptThread@@QAEXXZ 1002a510 f     splay.obj
 0001:00029570       ?DefineBits@ScriptThread@@QAEXXZ 1002a570 f     splay.obj
 0001:000295c0       ?DefineFont@ScriptThread@@QAEXXZ 1002a5c0 f     splay.obj
 0001:00029610       ?DefineFont2@ScriptThread@@QAEXXZ 1002a610 f     splay.obj
 0001:000296a0       ?DefineFontInfo@ScriptThread@@QAEXXZ 1002a6a0 f     splay.obj
 0001:00029700       ?DefineText@ScriptThread@@QAEXXZ 1002a700 f     splay.obj
 0001:00029760       ?DefineEditText@ScriptThread@@QAEXXZ 1002a760 f     splay.obj
 0001:000297e0       ?DoTag@ScriptThread@@QAEHXZ 1002a7e0 f     splay.obj
 0001:00029a80       ?DoTags@ScriptThread@@QAEHH@Z 1002aa80 f     splay.obj
 0001:00029ab0       ?DrawFrame@ScriptThread@@QAEHHH@Z 1002aab0 f     splay.obj
 0001:00029c50       ?DoFrame@ScriptThread@@QAEXHH@Z 1002ac50 f     splay.obj
 0001:00029d70       ?Seek@ScriptThread@@QAEXH@Z 1002ad70 f     splay.obj
 0001:00029d90       ?FindLabel@ScriptThread@@QAEHPAD@Z 1002ad90 f     splay.obj
 0001:00029e20       ?ClearScript@ScriptPlayer@@QAEXXZ 1002ae20 f     splay.obj
 0001:00029ee0       ?PushDataBuf@ScriptPlayer@@QAEXPAEJ@Z 1002aee0 f     splay.obj
 0001:0002a170       ?PushDataComplete@ScriptPlayer@@QAEXXZ 1002b170 f     splay.obj
 0001:0002a1f0       ??1ScriptThread@@QAE@XZ    1002b1f0 f     splay.obj
 0001:0002a210       ?Play@ScriptThread@@QAEXH@Z 1002b210 f     splay.obj
 0001:0002a250       ??0ScriptPlayer@@QAE@XZ    1002b250 f     splay.obj
 0001:0002a360       ??1ScriptPlayer@@QAE@XZ    1002b360 f     splay.obj
 0001:0002a3f0       ?SetDataComplete@ScriptPlayer@@QAEXXZ 1002b3f0 f     splay.obj
 0001:0002a580       ?strchr@@YAPADPADH@Z       1002b580 f i   splayer.obj
 0001:0002a590       ?CalcBitsDirty@DisplayList@@QAEXPAUSRECT@@@Z 1002b590 f i   splayer.obj
 0001:0002a5b0       ?AtEnd@ScriptThread@@QAEHXZ 1002b5b0 f i   splayer.obj
 0001:0002a5c0       ?PushData@ScriptPlayer@@QAEXPAEJ@Z 1002b5c0 f i   splayer.obj
 0001:0002a5e0       ?FrameComplete@ScriptPlayer@@QAEHH@Z 1002b5e0 f i   splayer.obj
 0001:0002a600       ?ParseHeader@ScriptPlayer@@QAEHXZ 1002b600 f i   splayer.obj
 0001:0002a620       ??0SButton@@QAE@XZ         1002b620 f i   splayer.obj
 0001:0002a640       ??4SButton@@QAEAAU0@ABU0@@Z 1002b640 f i   splayer.obj
 0001:0002a670       ??4SButton@@QAEAAU0@PBU0@@Z 1002b670 f i   splayer.obj
 0001:0002a6a0       ?CurrentFrame@SPlayer@@QAEHXZ 1002b6a0 f i   splayer.obj
 0001:0002a6b0       ?UnlockBuffer@SPlayer@@QAEXXZ 1002b6b0 f i   splayer.obj
 0001:0002a6c0       ?Play@SPlayer@@QAEXH@Z     1002b6c0 f i   splayer.obj
 0001:0002a6d0       ?StopPlay@SPlayer@@QAEXXZ  1002b6d0 f i   splayer.obj
 0001:0002a6e0       ?XSetCapture@SPlayer@@QAEXXZ 1002b6e0 f i   splayer.obj
 0001:0002a6f0       ?XReleaseCapture@SPlayer@@QAEXXZ 1002b6f0 f i   splayer.obj
 0001:0002a700       ??0ButtonWeight@SPlayer@@QAE@XZ 1002b700 f i   splayer.obj
 0001:0002a710       ?Reset@ButtonOrder@SPlayer@@QAEXXZ 1002b710 f i   splayer.obj
 0001:0002a720       ?RandomFastInit@@YAXPAUTRandomFast@@@Z 1002b720 f     splayer.obj
 0001:0002a750       ?RandomPureHasher@@YAJJ@Z  1002b750 f     splayer.obj
 0001:0002a790       ?Random@@YAJJ@Z            1002b790 f     splayer.obj
 0001:0002a830       ?FindLayer@@YAPAVScriptPlayer@@PAV1@H@Z 1002b830 f     splayer.obj
 0001:0002a860       ?OpenVariableLoader@SPlayer@@QAEPAVScriptPlayer@@HPBD@Z 1002b860 f     splayer.obj
 0001:0002a8f0       ?OpenSprite@SPlayer@@QAEPAVScriptPlayer@@PAVScriptThread@@@Z 1002b8f0 f     splayer.obj
 0001:0002aae0       ?ZoomScale@SPlayer@@QAEXJ@Z 1002bae0 f     splayer.obj
 0001:0002aaf0       ?FreeLayers@SPlayer@@QAEXXZ 1002baf0 f     splayer.obj
 0001:0002ab30       ?FreeBuffer@SPlayer@@QAEXXZ 1002bb30 f     splayer.obj
 0001:0002ab60       ?ConvertStringToInteger@@YAHPBDPAH@Z 1002bb60 f     splayer.obj
 0001:0002ac00       ?PowerOfTen@@YANH@Z        1002bc00 f     splayer.obj
 0001:0002ac30       ?ConvertStringToDouble@@YAHPBDPAN@Z 1002bc30 f     splayer.obj
 0001:0002ad50       ?IsTrue@@YAHPBD@Z          1002bd50 f     splayer.obj
 0001:0002adb0       ?CloneSprite@@YAXPAVScriptThread@@PADH@Z 1002bdb0 f     splayer.obj
 0001:0002ade0       ?GetProperty@SPlayer@@QAENPAVScriptThread@@H@Z 1002bde0 f     splayer.obj
 0001:0002b070       ?IsMachineNameURL@@YAHPBD@Z 1002c070 f     splayer.obj
 0001:0002b0c0       ?PlayerIsMultiByte@@YAHXZ  1002c0c0 f     splayer.obj
 0001:0002b0d0       ?PlayerIsLeadByte@@YAHE@Z  1002c0d0 f     splayer.obj
 0001:0002b0e0       ?PlayerStringLength@@YAHPADH@Z 1002c0e0 f     splayer.obj
 0001:0002b100       ?PlayerStringIndex@@YAPADPADH@Z 1002c100 f     splayer.obj
 0001:0002b110       ?PlayerStringExtract@@YAPADPADHHH@Z 1002c110 f     splayer.obj
 0001:0002b170       ??_GActionList@@QAEPAXI@Z  1002c170 f i   splayer.obj
 0001:0002b190       ?GetMenuState@SPlayer@@QAEXPAUMenuStatus@@@Z 1002c190 f     splayer.obj
 0001:0002b290       ?GetEditMenuState@SPlayer@@QAEXPAUEditMenuStatus@@@Z 1002c290 f     splayer.obj
 0001:0002b310       ?SetMenuState@SPlayer@@QAEXXZ 1002c310 f     splayer.obj
 0001:0002b340       ?GetPopupMenuState@SPlayer@@QAEHXZ 1002c340 f     splayer.obj
 0001:0002b380       ?ControlPlay@SPlayer@@QAEXXZ 1002c380 f     splayer.obj
 0001:0002b3c0       ?ControlLoop@SPlayer@@QAEXXZ 1002c3c0 f     splayer.obj
 0001:0002b3f0       ?Run@SPlayer@@QAEXXZ       1002c3f0 f     splayer.obj
 0001:0002b450       ?Suspend@SPlayer@@QAEXXZ   1002c450 f     splayer.obj
 0001:0002b480       ?LayerNum@@YAHPAD@Z        1002c480 f     splayer.obj
 0001:0002b4c0       ?AppendChar@URLBuilder@@QAEXD@Z 1002c4c0 f     splayer.obj
 0001:0002b530       ?AppendInt@URLBuilder@@QAEXH@Z 1002c530 f     splayer.obj
 0001:0002b630       ?HexChar@@YAHH@Z           1002c630 f     splayer.obj
 0001:0002b650       ?EncodeString@URLBuilder@@QAEXPAD@Z 1002c650 f     splayer.obj
 0001:0002b740       ?AppendString@URLBuilder@@QAEXPAD@Z 1002c740 f     splayer.obj
 0001:0002b7c0       ?EncodeVariables@URLBuilder@@QAEXPAVScriptVariable@@@Z 1002c7c0 f     splayer.obj
 0001:0002b820       ?ParseHexChar@@YAHD@Z      1002c820 f     splayer.obj
 0001:0002b860       ?ExtractCharacter@@YAPADPADPAVURLBuilder@@@Z 1002c860 f     splayer.obj
 0001:0002b910       ?DecodeQueryString@@YAXPAVScriptThread@@PAD@Z 1002c910 f     splayer.obj
 0001:0002ba20       ?ExtractVariables@@YAXPAVScriptThread@@PAD@Z 1002ca20 f     splayer.obj
 0001:0002ba50       ?BlinkCursor@SPlayer@@QAEXXZ 1002ca50 f     splayer.obj
 0001:0002ba80       ?HandleKeyUp@SPlayer@@QAEXHH@Z 1002ca80 f     splayer.obj
 0001:0002ba90       ?IsSelecting@SPlayer@@QAEHXZ 1002ca90 f     splayer.obj
 0001:0002bab0       ?Push@SPlayer@@QAEXPAD@Z   1002cab0 f     splayer.obj
 0001:0002bb50       ?Pop@SPlayer@@QAEPADXZ     1002cb50 f     splayer.obj
 0001:0002bb80       ?PopNum@SPlayer@@QAENXZ    1002cb80 f     splayer.obj
 0001:0002bbe0       ?IsButtonUp@SPlayer@@QAEHPAUSRECT@@0@Z 1002cbe0 f     splayer.obj
 0001:0002bc10       ?IsButtonDown@SPlayer@@QAEHPAUSRECT@@0@Z 1002cc10 f     splayer.obj
 0001:0002bc40       ?IsButtonRight@SPlayer@@QAEHPAUSRECT@@0@Z 1002cc40 f     splayer.obj
 0001:0002bc70       ?IsButtonLeft@SPlayer@@QAEHPAUSRECT@@0@Z 1002cc70 f     splayer.obj
 0001:0002bc90       ?IsButtonAligned@SPlayer@@QAEHPAUSRECT@@H0@Z 1002cc90 f     splayer.obj
 0001:0002bcf0       ?IsButtonOverlapped@SPlayer@@QAEHPAUSRECT@@H0@Z 1002ccf0 f     splayer.obj
 0001:0002bd20       ?ButtonCloser@SPlayer@@QAEPAUSRECT@@PAU2@00@Z 1002cd20 f     splayer.obj
 0001:0002bd60       ?AddButton@SPlayer@@QAEXPAUSObject@@@Z 1002cd60 f     splayer.obj
 0001:0002bde0       ?RemoveAllButtons@SPlayer@@QAEXXZ 1002cde0 f     splayer.obj
 0001:0002be20       ??_H@YGXPAXIHP6EPAX0@Z@Z   1002ce20 f i   splayer.obj
 0001:0002be60       ?CalcButtonWeight@SPlayer@@QAEJPAUSRECT@@@Z 1002ce60 f     splayer.obj
 0001:0002be80       ?ButtonSort@SPlayer@@QAEXPAVButtonWeight@1@H@Z 1002ce80 f     splayer.obj
 0001:0002bf20       ?CreateIdealPalette@SPlayer@@QAEXPAUSColorTable@@@Z 1002cf20 f     splayer.obj
 0001:0002c0e0       ?UpdateBuffer@SPlayer@@QAEHH@Z 1002d0e0 f     splayer.obj
 0001:0002c190       ?CheckUpdate@SPlayer@@QAEXXZ 1002d190 f     splayer.obj
 0001:0002c200       ?GetCursorType@SPlayer@@QAEHXZ 1002d200 f     splayer.obj
 0001:0002c240       ?BuildRelative@SPlayer@@QAEPADPAD0@Z 1002d240 f     splayer.obj
 0001:0002c3f0       ?NSResolveURL@SPlayer@@QAEPADPAD@Z 1002d3f0 f     splayer.obj
 0001:0002c430       ?NetscapeDoURL@SPlayer@@QAEXPAD00PAULoadInfo@@@Z 1002d430 f     splayer.obj
 0001:0002c540       ?StreamInWrite@SPlayer@@QAEHPAUStreamData@@PAXH@Z 1002d540 f     splayer.obj
 0001:0002c5e0       ?StreamInDestroy@SPlayer@@QAEXPAUStreamData@@@Z 1002d5e0 f     splayer.obj
 0001:0002c680       ?LoadBuiltInFonts@SPlayer@@QAEHXZ 1002d680 f     splayer.obj
 0001:0002c730       ??0ButtonOrder@SPlayer@@QAE@XZ 1002d730 f i   splayer.obj
 0001:0002c750       ?FindTarget@SPlayer@@QAEPAVScriptThread@@PAUSObject@@PAD@Z 1002d750 f     splayer.obj
 0001:0002c8c0       ?GetTargetPath@SPlayer@@QAEPADPAUSObject@@@Z 1002d8c0 f     splayer.obj
 0001:0002ca40       ?ConvertIntegerToString@@YAPADH@Z 1002da40 f     splayer.obj
 0001:0002cac0       ?ResolveVariable@SPlayer@@QAEPAVScriptThread@@PADPAV2@PAPAD@Z 1002dac0 f     splayer.obj
 0001:0002cb30       ?GetVariable@SPlayer@@QAEPADPAVScriptThread@@PAD@Z 1002db30 f     splayer.obj
 0001:0002cc40       ?SetVariable@SPlayer@@QAEXPAVScriptThread@@PAD1H@Z 1002dc40 f     splayer.obj
 0001:0002cd00       ?ButtonChoose@SPlayer@@QAEPAUSObject@@PAU2@PAUSRECT@@H0101@Z 1002dd00 f     splayer.obj
 0001:0002cdb0       ?NumButtons@SPlayer@@QAEHPAUSObject@@@Z 1002ddb0 f     splayer.obj
 0001:0002ce10       ?BuildButtonTabMap@SPlayer@@QAEPAVButtonWeight@1@XZ 1002de10 f     splayer.obj
 0001:0002cf30       ?OnDraw@SPlayer@@QAEXXZ    1002df30 f     splayer.obj
 0001:0002cfa0       ?Repaint@SPlayer@@QAEXPAUSRECT@@@Z 1002dfa0 f     splayer.obj
 0001:0002d020       ?UpdateScreen@SPlayer@@QAEXXZ 1002e020 f     splayer.obj
 0001:0002d080       ?NSGetURL@SPlayer@@QAEXPAD00@Z 1002e080 f     splayer.obj
 0001:0002d100       ?SetVersionVariable@SPlayer@@QAEXPAVScriptPlayer@@@Z 1002e100 f     splayer.obj
 0001:0002d160       ?UpdateDropTarget@SPlayer@@QAEXXZ 1002e160 f     splayer.obj
 0001:0002d1e0       ?SetCamera@SPlayer@@QAEXH@Z 1002e1e0 f     splayer.obj
 0001:0002d280       ?ClearScript@SPlayer@@QAEXXZ 1002e280 f     splayer.obj
 0001:0002d2f0       ?ConvertDoubleToString@@YAPADN@Z 1002e2f0 f     splayer.obj
 0001:0002d610       ?SetProperty@SPlayer@@QAEXPAVScriptThread@@HN@Z 1002e610 f     splayer.obj
 0001:0002db40       ?SetPropertyStr@SPlayer@@QAEXPAVScriptThread@@HPAD@Z 1002eb40 f     splayer.obj
 0001:0002dbe0       ?ResolveFrameNum@SPlayer@@QAEPAVScriptThread@@PADPAV2@PAH@Z 1002ebe0 f     splayer.obj
 0001:0002dc50       ?GetPropertyStr@SPlayer@@QAEPADPAVScriptThread@@H@Z 1002ec50 f     splayer.obj
 0001:0002dce0       ?ControlOpen@SPlayer@@QAEXPAVAresobj@@@Z 1002ece0 f     splayer.obj
 0001:0002dd60       ?ControlClose@SPlayer@@QAEXXZ 1002ed60 f     splayer.obj
 0001:0002dd90       ?ControlHighQuality@SPlayer@@QAEXXZ 1002ed90 f     splayer.obj
 0001:0002dde0       ?Pan@SPlayer@@QAEXJJH@Z    1002ede0 f     splayer.obj
 0001:0002dfb0       ?PushNum@SPlayer@@QAEXN@Z  1002efb0 f     splayer.obj
 0001:0002dfe0       ?ButtonOrdering@SPlayer@@QAEXPAUSButton@@PAVButtonOrder@1@@Z 1002efe0 f     splayer.obj
 0001:0002e250       ?ButtonFind@SPlayer@@QAEHPAUSButton@@0@Z 1002f250 f     splayer.obj
 0001:0002e320       ??0SPlayer@@QAE@XZ         1002f320 f     splayer.obj
 0001:0002e520       ??1SPlayer@@UAE@XZ         1002f520 f     splayer.obj
 0001:0002e660       ?ClearLayer@SPlayer@@QAEXH@Z 1002f660 f     splayer.obj
 0001:0002e6c0       ?OpenLayer@SPlayer@@QAEPAVScriptPlayer@@HH@Z 1002f6c0 f     splayer.obj
 0001:0002e7c0       ?Zoom100@SPlayer@@QAEXXZ   1002f7c0 f     splayer.obj
 0001:0002e850       ?Home@SPlayer@@QAEXXZ      1002f850 f     splayer.obj
 0001:0002e880       ?RemoveSprite@SPlayer@@QAEXPAVScriptThread@@H@Z 1002f880 f     splayer.obj
 0001:0002e8c0       ?Control100@SPlayer@@QAEXXZ 1002f8c0 f     splayer.obj
 0001:0002e8f0       ?ControlViewAll@SPlayer@@QAEXXZ 1002f8f0 f     splayer.obj
 0001:0002e940       ?SetZoomRect@SPlayer@@QAEXJJJJ@Z 1002f940 f     splayer.obj
 0001:0002e9c0       ?LoadLayer@SPlayer@@QAEXPADH00H@Z 1002f9c0 f     splayer.obj
 0001:0002eaf0       ?GetURL@SPlayer@@QAEXPAD00H@Z 1002faf0 f     splayer.obj
 0001:0002eba0       ?StreamInNew@SPlayer@@QAEXPAUStreamData@@PADPAX@Z 1002fba0 f     splayer.obj
 0001:0002ece0       ??_ESPlayer@@UAEPAXI@Z     1002fce0 f i   splayer.obj
 0001:0002ece0       ??_GSPlayer@@UAEPAXI@Z     1002fce0 f i   splayer.obj
 0001:0002ed00       ?Zoom@SPlayer@@QAEXUSPOINT@@0@Z 1002fd00 f     splayer.obj
 0001:0002ee70       ?ZoomF@SPlayer@@QAEXJPAUSPOINT@@@Z 1002fe70 f     splayer.obj
 0001:0002efd0       ?Zoom@SPlayer@@QAEXPAUSRECT@@@Z 1002ffd0 f     splayer.obj
 0001:0002f020       ?DoActions@SPlayer@@QAEXXZ 10030020 f     splayer.obj
 0001:00030580       ?LoadMovie@SPlayer@@QAEXPAD@Z 10031580 f     splayer.obj
 0001:000305b0       ?ControlOpen@SPlayer@@QAEXPAD@Z 100315b0 f     splayer.obj
 0001:00030680       ?ControlZoomIn@SPlayer@@QAEXXZ 10031680 f     splayer.obj
 0001:000306c0       ?ControlZoomContext@SPlayer@@QAEXHH@Z 100316c0 f     splayer.obj
 0001:00030710       ?ControlZoomOut@SPlayer@@QAEXXZ 10031710 f     splayer.obj
 0001:00030750       ?Zoom@SPlayer@@QAEXH@Z     10031750 f     splayer.obj
 0001:000307b0       ?CallFrame@SPlayer@@QAEHPAVScriptThread@@H@Z 100317b0 f     splayer.obj
 0001:000308b0       ?DoButton@SPlayer@@QAEXPAUSObject@@HH@Z 100318b0 f     splayer.obj
 0001:00030a00       ?ButtonFocusSet@SPlayer@@QAEXPAUSObject@@@Z 10031a00 f     splayer.obj
 0001:00030a50       ?ButtonFocusRemove@SPlayer@@QAEXPAUSObject@@@Z 10031a50 f     splayer.obj
 0001:00030ac0       ?DoButton@SPlayer@@QAEXPAUSPOINT@@HH@Z 10031ac0 f     splayer.obj
 0001:00030c80       ?MouseMove@SPlayer@@QAEXHHH@Z 10031c80 f     splayer.obj
 0001:00030e80       ?MouseDown@SPlayer@@QAEXHH@Z 10031e80 f     splayer.obj
 0001:00030f00       ?MouseUp@SPlayer@@QAEXHH@Z 10031f00 f     splayer.obj
 0001:00030f90       ?CancelCapture@SPlayer@@QAEXH@Z 10031f90 f     splayer.obj
 0001:00030ff0       ?GotoFrame@SPlayer@@QAEXH@Z 10031ff0 f     splayer.obj
 0001:00031020       ?DoPlay@SPlayer@@QAEXH@Z   10032020 f     splayer.obj
 0001:00031180       ?ButtonGoDirection@SPlayer@@QAEXH@Z 10032180 f     splayer.obj
 0001:00031280       ?ButtonEnter@SPlayer@@QAEXXZ 10032280 f     splayer.obj
 0001:000312c0       ?ButtonTabNext@SPlayer@@QAEXXZ 100322c0 f     splayer.obj
 0001:000313b0       ?ButtonTabPrevious@SPlayer@@QAEXXZ 100323b0 f     splayer.obj
 0001:000314b0       ?Rewind@SPlayer@@QAEXXZ    100324b0 f i   splayer.obj
 0001:000314e0       ?Forward@SPlayer@@QAEXXZ   100324e0 f i   splayer.obj
 0001:00031510       ?Back@SPlayer@@QAEXXZ      10032510 f i   splayer.obj
 0001:00031540       ?ControlRewind@SPlayer@@QAEXXZ 10032540 f     splayer.obj
 0001:00031590       ?ControlForward@SPlayer@@QAEXXZ 10032590 f     splayer.obj
 0001:000315e0       ?ControlBack@SPlayer@@QAEXXZ 100325e0 f     splayer.obj
 0001:00031630       ?TabKeyDown@SPlayer@@QAEHHH@Z 10032630 f     splayer.obj
 0001:000317e0       ?HandleKeyDown@SPlayer@@QAEHHH@Z 100327e0 f     splayer.obj
 0001:00031aa0       ??0SStroker@@QAE@PAVDisplayList@@PAPAUREdge@@@Z 10032aa0 f     sstroker.obj
 0001:00031ac0       ?MakeVertLine@@YAXPAUCURVE@@J@Z 10032ac0 f     sstroker.obj
 0001:00031b00       ?AddCurve@SStroker@@QAEXPAUCURVE@@@Z 10032b00 f     sstroker.obj
 0001:00031d90       ?AddEdge@SStroker@@QAEXPAUSPOINT@@0@Z 10032d90 f     sstroker.obj
 0001:00031dc0       ?StrokeJoin@SStroker@@QAEXPAUSPOINT@@00@Z 10032dc0 f     sstroker.obj
 0001:00031fa0       ?StrokeThickCurve@SStroker@@QAEXPAUCURVE@@@Z 10032fa0 f     sstroker.obj
 0001:00032210       ?StrokeThinLine@SStroker@@QAEXPAUCURVE@@@Z 10033210 f     sstroker.obj
 0001:000324a0       ?CurveOffsetX@@YAXPAUCURVE@@J@Z 100334a0 f i   sstroker.obj
 0001:000324c0       ?CurveOffsetY@@YAXPAUCURVE@@J@Z 100334c0 f i   sstroker.obj
 0001:000324e0       ?SameSign@@YAHJJ@Z         100334e0 f i   sstroker.obj
 0001:00032510       ?StrokeThinCurve@SStroker@@QAEXPAUCURVE@@@Z 10033510 f     sstroker.obj
 0001:00032860       ?BeginStroke@SStroker@@QAEXJPAURColor@@@Z 10033860 f     sstroker.obj
 0001:000328a0       ?AddStrokeCurve@SStroker@@QAEXPAUCURVE@@@Z 100338a0 f     sstroker.obj
 0001:00032aa0       ?EndStroke@SStroker@@QAEXXZ 10033aa0 f     sstroker.obj
 0001:00032c40       ?GetUnixFontData@@YAHPAPAD@Z 10033c40 f     unixfonts.obj
 0001:00032ca0       ?strstr@@YAPADPADPBD@Z     10033ca0 f i   avi.obj
 0001:00032cb0       ?mini@@YAHHH@Z             10033cb0 f i   avi.obj
 0001:00032cc0       ?color32@@YAIEEE@Z         10033cc0 f i   avi.obj
 0001:00032ce0       ?color32@@YAIEEEE@Z        10033ce0 f i   avi.obj
 0001:00032d00       ?getCaption@Abutton@@UAEPADXZ 10033d00 f i   avi.obj
 0001:00032d50       ??0AaviStream@@QAE@XZ      10033d50 f     avi.obj
 0001:00032db0       ??1AaviStream@@QAE@XZ      10033db0 f     avi.obj
 0001:00032e90       ??1AaviRead@@UAE@XZ        10033e90 f     avi.obj
 0001:00032f40       ?getCI@AaviRead@@UAEPAVACI@@XZ 10033f40 f i   avi.obj
 0001:00032f50       ?getWidth@AaviRead@@QAEHXZ 10033f50 f     avi.obj
 0001:00032f60       ?getHeight@AaviRead@@QAEHXZ 10033f60 f     avi.obj
 0001:00032f70       ?getNbBits@AaviRead@@QAEHXZ 10033f70 f     avi.obj
 0001:00032fa0       ?getSample@AaviRead@@QAEHHPAPAX@Z 10033fa0 f     avi.obj
 0001:00032ff0       ?setSample44ks@AaviRead@@QAEHHPAXH@Z 10033ff0 f     avi.obj
 0001:00033790       ?goIDX@AaviRead@@AAE_NH@Z  10034790 f     avi.obj
 0001:000338a0       ?testIDX@AaviRead@@AAE_NPAVAfile@@H@Z 100348a0 f     avi.obj
 0001:00033920       ?checkIDX@AaviRead@@AAEXPAVAfile@@@Z 10034920 f     avi.obj
 0001:00033aa0       ?read@AaviRead@@AAE_NXZ    10034aa0 f     avi.obj
 0001:00034060       ?getFPS@AaviRead@@QAEMXZ   10035060 f     avi.obj
 0001:000340d0       ?write@Achunk@@QAEHPAXH@Z  100350d0 f     avi.obj
 0001:00034100       ?writeMagic@Achunk@@QAEXPAD@Z 10035100 f     avi.obj
 0001:00034160       ?setBitmap@AaviWrite@@QAEXPAVAbitmap@@@Z 10035160 f     avi.obj
 0001:00034190       ?setSample@AaviWrite@@QAEXPAXH@Z 10035190 f     avi.obj
 0001:000341a0       ?addIDX@AaviWrite@@QAEXPAVAchunk@@_N@Z 100351a0 f     avi.obj
 0001:00034240       ??_EAaviRead@@UAEPAXI@Z    10035240 f i   avi.obj
 0001:000342a0       ?initStreams@AaviRead@@AAE_NXZ 100352a0 f     avi.obj
 0001:00034710       ?seek@AaviRead@@AAE_NH@Z   10035710 f     avi.obj
 0001:00034810       ??0Achunk@@QAE@PAVAfile@@PAD@Z 10035810 f     avi.obj
 0001:00034890       ??0Achunk@@QAE@PAV0@PAD@Z  10035890 f     avi.obj
 0001:00034910       ??1Achunk@@UAE@XZ          10035910 f     avi.obj
 0001:000349a0       ?open@AaviWrite@@QAEXXZ    100359a0 f     avi.obj
 0001:00034e30       ?close@AaviWrite@@QAEXXZ   10035e30 f     avi.obj
 0001:00034fc0       ?writeFrame@AaviWrite@@QAE_NXZ 10035fc0 f     avi.obj
 0001:000352d0       ?open@AaviRead@@AAE_NXZ    100362d0 f     avi.obj
 0001:00035880       ?getFrame@AaviRead@@QAEPAVAbitmap@@H@Z 10036880 f     avi.obj
 0001:000358f0       ??_EAchunk@@UAEPAXI@Z      100368f0 f i   avi.obj
 0001:000358f0       ??_GAchunk@@UAEPAXI@Z      100368f0 f i   avi.obj
 0001:00035910       ??0AaviWrite@@QAE@PADHHM@Z 10036910 f     avi.obj
 0001:00035bd0       ?getCI@AaviWrite@@UAEPAVACI@@XZ 10036bd0 f i   avi.obj
 0001:00035be0       ??1AaviWrite@@UAE@XZ       10036be0 f     avi.obj
 0001:00035c70       ??_EAaviWrite@@UAEPAXI@Z   10036c70 f i   avi.obj
 0001:00035cd0       ??0AaviRead@@QAE@PADH@Z    10036cd0 f     avi.obj
 0001:00035e20       _cosf                      10036e20 f i   bitmap.obj
 0001:00035e40       _sinf                      10036e40 f i   bitmap.obj
 0001:00035e60       _sqrtf                     10036e60 f i   bitmap.obj
 0001:00035e80       ?cos@@YAMM@Z               10036e80 f i   bitmap.obj
 0001:00035ea0       ?sin@@YAMM@Z               10036ea0 f i   bitmap.obj
 0001:00035ec0       ?sqrt@@YAMM@Z              10036ec0 f i   bitmap.obj
 0001:00035ee0       ?mini@@YAMMM@Z             10036ee0 f i   bitmap.obj
 0001:00035f10       ?maxi@@YAHHH@Z             10036f10 f i   bitmap.obj
 0001:00035f20       ?maxi@@YAMMM@Z             10036f20 f i   bitmap.obj
 0001:00035f50       ??0Arectangle@@QAE@XZ      10036f50 f i   bitmap.obj
 0001:00035f60       ?intersect@Arectangle@@QAE_NAAV1@@Z 10036f60 f i   bitmap.obj
 0001:00036000       ?translat@Arectangle@@QAEXHH@Z 10037000 f i   bitmap.obj
 0001:00036010       ?contains@Arectangle@@QAE_NHH@Z 10037010 f i   bitmap.obj
 0001:00036050       ?pixel@Abitmap@@QAE_NHHI@Z 10037050 f i   bitmap.obj
 0001:000360f0       ?color32to16@@YAGI@Z       100370f0 f i   bitmap.obj
 0001:00036120       ?color16to32@@YAIG@Z       10037120 f i   bitmap.obj
 0001:00036150       ?colorRGB@@YAXPAE00I@Z     10037150 f i   bitmap.obj
 0001:00036180       ?colorRGBA@@YAXPAE000I@Z   10037180 f i   bitmap.obj
 0001:000361b0       ?colorRGB@@YAXPAE00G@Z     100371b0 f i   bitmap.obj
 0001:000361e0       ?color16@@YAGEEE@Z         100371e0 f i   bitmap.obj
 0001:00036210       ?revers8@@YAEH@Z           10037210 f i   bitmap.obj
 0001:00036230       ?revers32@@YAIHHHH@Z       10037230 f i   bitmap.obj
 0001:00036540       ?size@Abitmap@@QAE_NHH@Z   10037540 f     bitmap.obj
 0001:00036760       ?set@Abitmap@@QAE_NPAUHDC__@@HHH@Z 10037760 f     bitmap.obj
 0001:000368f0       ?set@Abitmap@@QAE_NPAUHDC__@@HHHHH@Z 100378f0 f     bitmap.obj
 0001:00036ac0       ?NCsetMMX@Abitmap@@AAE_NHHHHHHPAV1@HH@Z 10037ac0 f     bitmap.obj
 0001:00037ce0       ?set@Abitmap@@QAE_NHHHHHHPAV1@HH@Z 10038ce0 f     bitmap.obj
 0001:0003be90       ?NCsetMMX@Abitmap@@AAE_NHHHHHHHHPAV1@HH@Z 1003ce90 f     bitmap.obj
 0001:0003ca30       ?set@Abitmap@@QAE_NHHHHHHHHPAV1@HH@Z 1003da30 f     bitmap.obj
 0001:0003f7f0       ?line8@@YAXHHHHHHHH@Z      100407f0 f i   bitmap.obj
 0001:0003f830       ?line16@@YAXHHHHHHHH@Z     10040830 f i   bitmap.obj
 0001:0003f870       ?line32@@YAXHHHHHHHH@Z     10040870 f i   bitmap.obj
 0001:0003f8b0       ?line@Abitmap@@QAE_NHHHHI@Z 100408b0 f     bitmap.obj
 0001:0003fba0       ?pixela@Abitmap@@QAE_NHHIMI@Z 10040ba0 f     bitmap.obj
 0001:0003fe40       ?linea@Abitmap@@QAE_NHHHHIMI@Z 10040e40 f     bitmap.obj
 0001:00040b60       ?box@Abitmap@@QAE_NHHHHI@Z 10041b60 f     bitmap.obj
 0001:00040bd0       ?boxf@Abitmap@@QAE_NHHHHI@Z 10041bd0 f     bitmap.obj
 0001:00040d60       ?boxa@Abitmap@@QAE_NHHHHIMI@Z 10041d60 f     bitmap.obj
 0001:00040e00       ?boxfa@Abitmap@@QAE_NHHHHIMI@Z 10041e00 f     bitmap.obj
 0001:00040e60       ?flipX@Abitmap@@QAE_NXZ    10041e60 f     bitmap.obj
 0001:00040f30       ?flipY@Abitmap@@QAE_NXZ    10041f30 f     bitmap.obj
 0001:00040fc0       ?blur@Abitmap@@QAE_NPAV1@MM@Z 10041fc0 f     bitmap.obj
 0001:00041400       ?stretch@Abitmap@@QAE_NPAV1@@Z 10042400 f     bitmap.obj
 0001:00041770       ?ablur@Abitmap@@QAE_NPAV1@MM@Z 10042770 f     bitmap.obj
 0001:00041a30       ?NCcreate@Abitmap@@AAE_NXZ 10042a30 f     bitmap.obj
 0001:00041af0       ?NCfree@Abitmap@@AAE_NXZ   10042af0 f     bitmap.obj
 0001:00041b40       ?NCcopy@Abitmap@@AAE_NPBV1@@Z 10042b40 f     bitmap.obj
 0001:00041c20       ?NCreadBMP@Abitmap@@AAE_NPAVAfile@@@Z 10042c20 f     bitmap.obj
 0001:00041e30       ?NCreadPNG@Abitmap@@AAE_NPAUpng_struct_def@@PAUpng_info_struct@@@Z 10042e30 f     bitmap.obj
 0001:00042360       ?NCreadJPG@Abitmap@@AAE_NPAVAfile@@@Z 10043360 f     bitmap.obj
 0001:00042640       ?NCwriteJPG@Abitmap@@AAE_NPAVAfile@@H@Z 10043640 f     bitmap.obj
 0001:00042830       ?load@Abitmap@@QAE_NPAD@Z  10043830 f     bitmap.obj
 0001:00042ac0       ?load@Abitmap@@QAE_NPAVAfile@@H@Z 10043ac0 f     bitmap.obj
 0001:00042af0       ?save@Abitmap@@QAE_NPADH@Z 10043af0 f     bitmap.obj
 0001:00042c10       ?save@Abitmap@@QAE_NPAVAfile@@HH@Z 10043c10 f     bitmap.obj
 0001:00042c50       ?getDesktop@Abitmap@@QAE_NHH@Z 10043c50 f     bitmap.obj
 0001:00042d50       ??0Abitmap@@QAE@PAVAresobj@@@Z 10043d50 f     bitmap.obj
 0001:00042f50       ?getCI@Abitmap@@UAEPAVACI@@XZ 10043f50 f i   bitmap.obj
 0001:00042f60       ??1Abitmap@@UAE@XZ         10043f60 f     bitmap.obj
 0001:00042fc0       ??0Abitmap@@QAE@HHH@Z      10043fc0 f     bitmap.obj
 0001:00043030       ??0Abitmap@@QAE@PAD@Z      10044030 f     bitmap.obj
 0001:000430d0       ??4Abitmap@@QAEXABV0@@Z    100440d0 f     bitmap.obj
 0001:000430f0       ?getDesktop@Abitmap@@SAPAV1@XZ 100440f0 f     bitmap.obj
 0001:000431f0       ??_EAbitmap@@UAEPAXI@Z     100441f0 f i   bitmap.obj
 0001:00043250       ??0Afile@@QAE@PAD@Z        10044250 f i   buffer.obj
 0001:00043280       ?maxi@@YA_J_J0@Z           10044280 f i   buffer.obj
 0001:000432b0       ?getCI@Afile@@UAEPAVACI@@XZ 100442b0 f i   buffer.obj
 0001:000432c0       ??1Afile@@UAE@XZ           100442c0 f i   buffer.obj
 0001:000432d0       ?read@Afile@@UAEHPAXH@Z    100442d0 f i   buffer.obj
 0001:000432f0       ?write@Afile@@UAEHPAXH@Z   100442f0 f i   buffer.obj
 0001:00043330       ?writeString@Afile@@UAE_NPAD@Z 10044330 f i   buffer.obj
 0001:00043360       ?seek@Afile@@UAE_N_J@Z     10044360 f i   buffer.obj
 0001:00043380       ?getSize@Afile@@UAE_JXZ    10044380 f i   buffer.obj
 0001:00043390       ?isOK@Afile@@UAE_NXZ       10044390 f i   buffer.obj
 0001:000433a0       ??_GAfile@@UAEPAXI@Z       100443a0 f i   buffer.obj
 0001:000433a0       ??_EAfile@@UAEPAXI@Z       100443a0 f i   buffer.obj
 0001:000433d0       ??0Abuffer@@QAE@PADH@Z     100443d0 f     buffer.obj
 0001:00043480       ?getCI@Abuffer@@UAEPAVACI@@XZ 10044480 f i   buffer.obj
 0001:00043490       ?isOK@Abuffer@@UAE_NXZ     10044490 f i   buffer.obj
 0001:000434a0       ??1Abuffer@@UAE@XZ         100444a0 f     buffer.obj
 0001:00043540       ?read@Abuffer@@UAEHPAXH@Z  10044540 f     buffer.obj
 0001:00043630       ?write@Abuffer@@UAEHPAXH@Z 10044630 f     buffer.obj
 0001:00043740       ?writeString@Abuffer@@UAE_NPAD@Z 10044740 f     buffer.obj
 0001:000437d0       ?readString@Abuffer@@UAE_NPAD@Z 100447d0 f     buffer.obj
 0001:00043870       ?readStringAlloc@Abuffer@@UAE_NPAPAD@Z 10044870 f     buffer.obj
 0001:00043930       ?getSize@Abuffer@@UAE_JXZ  10044930 f     buffer.obj
 0001:00043960       ?seek@Abuffer@@UAE_N_J@Z   10044960 f     buffer.obj
 0001:000439a0       ?clear@Abuffer@@UAEXXZ     100449a0 f     buffer.obj
 0001:000439d0       ??_EAbuffer@@UAEPAXI@Z     100449d0 f i   buffer.obj
 0001:00043a30       ?set@Abitmap@@QAE_NHHPAV1@HH@Z 10044a30 f i   button.obj
 0001:00043a60       ?size@Aobject@@UAE_NHH@Z   10044a60 f i   button.obj
 0001:00043a90       ??0Abutton@@QAE@PADPAVAobject@@HHHH0H@Z 10044a90 f     button.obj
 0001:00043b30       ?setTooltips@Aobject@@UAE_NPAD@Z 10044b30 f i   button.obj
 0001:00043b70       ?dragdrop@Aobject@@UAE_NHHHHPAX@Z 10044b70 f i   button.obj
 0001:00043b80       ?keyboard@Aobject@@UAE_NHHHH@Z 10044b80 f i   button.obj
 0001:00043b90       ?system@Aobject@@UAE_NHII@Z 10044b90 f i   button.obj
 0001:00043ba0       ?pulse@Aobject@@UAEXXZ     10044ba0 f i   button.obj
 0001:00043bb0       ?NCkeyboard@Aobject@@UAE_NHHHH@Z 10044bb0 f i   button.obj
 0001:00043c10       ?getCI@Abutton@@UAEPAVACI@@XZ 10044c10 f i   button.obj
 0001:00043c20       ?isChecked@Abutton@@UAE_NXZ 10044c20 f i   button.obj
 0001:00043c30       ?setAlign@Abutton@@UAEXH@Z 10044c30 f i   button.obj
 0001:00043c50       ??0Abutton@@QAE@PADPAVAobject@@HHHHPAVAresobj@@H@Z 10044c50 f     button.obj
 0001:00043d10       ??0Abutton@@QAE@PADPAVAobject@@HHHHPAVAbitmap@@H@Z 10044d10 f     button.obj
 0001:00043df0       ?change@Abutton@@QAEXPAVAbitmap@@@Z 10044df0 f     button.obj
 0001:00043e30       ??0Abutton@@QAE@PADPAVAobject@@HHH@Z 10044e30 f     button.obj
 0001:00043f20       ??1Abutton@@UAE@XZ         10044f20 f     button.obj
 0001:00043f90       ?paint@Abutton@@UAEXPAVAbitmap@@@Z 10044f90 f     button.obj
 0001:000446c0       ?mouse@Abutton@@UAE_NHHHH@Z 100456c0 f     button.obj
 0001:00044830       ?setCaption@Abutton@@UAEXPAD@Z 10045830 f     button.obj
 0001:00044870       ?setChecked@Abutton@@UAEX_N@Z 10045870 f     button.obj
 0001:00044890       ??_EAbutton@@UAEPAXI@Z     10045890 f i   button.obj
 0001:000448f0       ?getText@Aclipboard@@SAPADXZ 100458f0 f     clipboard.obj
 0001:00044940       ?setText@Aclipboard@@SA_NPAD@Z 10045940 f     clipboard.obj
 0001:000449c0       ?setText@Aclipboard@@SA_NPADHH@Z 100459c0 f     clipboard.obj
 0001:00044a50       ?getBitmap@Aclipboard@@SAPAVAbitmap@@XZ 10045a50 f     clipboard.obj
 0001:00044bd0       ?setBitmap@Aclipboard@@SA_NPAVAbitmap@@@Z 10045bd0 f     clipboard.obj
 0001:00044d30       ??0Ad3d@@QAE@PADI@Z        10045d30 f     d3d.obj
 0001:00044d80       ?getCI@Ad3d@@UAEPAVACI@@XZ 10045d80 f i   d3d.obj
 0001:00044d90       ??1Ad3d@@UAE@XZ            10045d90 f     d3d.obj
 0001:00044e00       ?getAdapterCount@Ad3d@@UAEHXZ 10045e00 f     d3d.obj
 0001:00044e20       ?getAdapterWidth@Ad3d@@UAEHH@Z 10045e20 f     d3d.obj
 0001:00044e60       ?getAdapterHeight@Ad3d@@UAEHH@Z 10045e60 f     d3d.obj
 0001:00044ea0       ?getAdapterName@Ad3d@@UAE_NPADH@Z 10045ea0 f     d3d.obj
 0001:00044f40       ?getAdapterMonitor@Ad3d@@QAEPAUHMONITOR__@@H@Z 10045f40 f     d3d.obj
 0001:00044f60       ?createDevice@Ad3d@@UAE_NPAVAwindow@@H_N@Z 10045f60 f     d3d.obj
 0001:00045130       ?createDevice@Ad3d@@UAE_NPAUHWND__@@H_N@Z 10046130 f     d3d.obj
 0001:00045320       ?releaseDevice@Ad3d@@UAEXXZ 10046320 f     d3d.obj
 0001:00045340       ?addSwapChain@Ad3d@@QAEPAXPAVAwindow@@@Z 10046340 f     d3d.obj
 0001:00045410       ??_EAd3d@@UAEPAXI@Z        10046410 f i   d3d.obj
 0001:00045470       ??1Adisplay@@UAE@XZ        10046470 f     display.obj
 0001:000454d0       ?mouse@Aobject@@UAE_NHHHH@Z 100464d0 f i   display.obj
 0001:000454e0       ?getCI@Adisplay@@UAEPAVACI@@XZ 100464e0 f i   display.obj
 0001:000454f0       ?set@Adisplay@@UAEXM@Z     100464f0 f i   display.obj
 0001:00045540       ?NCdisplay@Adisplay@@EAEXXZ 10046540 f     display.obj
 0001:000455b0       ??_EAdisplay@@UAEPAXI@Z    100465b0 f i   display.obj
 0001:00045610       ??0Adisplay@@QAE@PADPAVAobject@@HHHHPAVAresobj@@HHH@Z 10046610 f     display.obj
 0001:000456d0       ??0Adisplay@@QAE@PADPAVAobject@@HHH@Z 100466d0 f     display.obj
 0001:00045840       ??0Apoint@@QAE@XZ          10046840 f i   edit.obj
 0001:00045850       ??0Apoint@@QAE@AAV0@@Z     10046850 f i   edit.obj
 0001:00045870       ?translat@Apoint@@QAEXHH@Z 10046870 f i   edit.obj
 0001:00045880       ??0Aedit@@QAE@PADPAVAobject@@HHHH@Z 10046880 f     edit.obj
 0001:00045960       ?getCI@Aedit@@UAEPAVACI@@XZ 10046960 f i   edit.obj
 0001:00045970       ?filter@Aedit@@UAE_ND@Z    10046970 f i   edit.obj
 0001:00045980       ??1Aedit@@UAE@XZ           10046980 f     edit.obj
 0001:000459a0       ?pulse@Aedit@@UAEXXZ       100469a0 f     edit.obj
 0001:000459c0       ?paint@Aedit@@UAEXPAVAbitmap@@@Z 100469c0 f     edit.obj
 0001:00045e30       ?getMpos@Aedit@@AAEHHH@Z   10046e30 f     edit.obj
 0001:00046020       ?mouse@Aedit@@UAE_NHHHH@Z  10047020 f     edit.obj
 0001:00046160       ?keyboard@Aedit@@UAE_NHHHH@Z 10047160 f     edit.obj
 0001:00046e50       ?set@Aedit@@UAEXPAD@Z      10047e50 f     edit.obj
 0001:00046ee0       ?getSize@Aedit@@UAEHXZ     10047ee0 f     edit.obj
 0001:00046f00       ?get@Aedit@@UAEXPADH@Z     10047f00 f     edit.obj
 0001:00046f20       ??_EAedit@@UAEPAXI@Z       10047f20 f i   edit.obj
 0001:00046f90       ?getSysPath@Afile@@SA_NHPAD@Z 10047f90 f     file.obj
 0001:00046fe0       ?relativePath@Afile@@UAE_NPAD0@Z 10047fe0 f     file.obj
 0001:00047160       ?absoluPath@Afile@@UAE_NPAD0@Z 10048160 f     file.obj
 0001:000472a0       ??0AfileDlg@@QAE@PADPAVAobject@@00H@Z 100482a0 f     filedlg.obj
 0001:000474b0       ?getCI@AfileDlg@@UAEPAVACI@@XZ 100484b0 f i   filedlg.obj
 0001:000474c0       ??1AfileDlg@@UAE@XZ        100484c0 f     filedlg.obj
 0001:000474f0       ?getFile@AfileDlg@@QAE_NPAD@Z 100484f0 f     filedlg.obj
 0001:00047520       ??_EAfileDlg@@UAEPAXI@Z    10048520 f i   filedlg.obj
 0001:00047590       ?exist@Afilehd@@SA_NPAD@Z  10048590 f     filehd.obj
 0001:000475b0       ??0Afilehd@@QAE@PADH@Z     100485b0 f     filehd.obj
 0001:00047630       ?getCI@Afilehd@@UAEPAVACI@@XZ 10048630 f i   filehd.obj
 0001:00047640       ?isOK@Afilehd@@UAE_NXZ     10048640 f i   filehd.obj
 0001:00047650       ??1Afilehd@@UAE@XZ         10048650 f     filehd.obj
 0001:00047680       ?read@Afilehd@@UAEHPAXH@Z  10048680 f     filehd.obj
 0001:000476d0       ?write@Afilehd@@UAEHPAXH@Z 100486d0 f     filehd.obj
 0001:00047720       ?seek@Afilehd@@UAE_N_J@Z   10048720 f     filehd.obj
 0001:00047770       ?getSize@Afilehd@@UAE_JXZ  10048770 f     filehd.obj
 0001:000477a0       ?readStringAlloc@Afilehd@@UAE_NPAPAD@Z 100487a0 f     filehd.obj
 0001:00047810       ?readString@Afilehd@@UAE_NPAD@Z 10048810 f     filehd.obj
 0001:00047860       ?writeString@Afilehd@@UAE_NPAD@Z 10048860 f     filehd.obj
 0001:000478c0       ??_EAfilehd@@UAEPAXI@Z     100488c0 f i   filehd.obj
 0001:00047940       ?mini@@YA_J_J0@Z           10048940 f i   filemem.obj
 0001:00047970       ??0Afilemem@@QAE@PADPAXH@Z 10048970 f     filemem.obj
 0001:000479b0       ?getCI@Afilemem@@UAEPAVACI@@XZ 100489b0 f i   filemem.obj
 0001:000479c0       ??1Afilemem@@UAE@XZ        100489c0 f     filemem.obj
 0001:000479d0       ?read@Afilemem@@UAEHPAXH@Z 100489d0 f     filemem.obj
 0001:00047a30       ?write@Afilemem@@UAEHPAXH@Z 10048a30 f     filemem.obj
 0001:00047ab0       ?readStringAlloc@Afilemem@@UAE_NPAPAD@Z 10048ab0 f     filemem.obj
 0001:00047b20       ?readString@Afilemem@@UAE_NPAD@Z 10048b20 f     filemem.obj
 0001:00047b70       ?writeString@Afilemem@@UAE_NPAD@Z 10048b70 f     filemem.obj
 0001:00047bd0       ?seek@Afilemem@@UAE_N_J@Z  10048bd0 f     filemem.obj
 0001:00047c20       ?getSize@Afilemem@@UAE_JXZ 10048c20 f     filemem.obj
 0001:00047c30       ??_EAfilemem@@UAEPAXI@Z    10048c30 f i   filemem.obj
 0001:00047c90       ??0Aflash@@QAE@PADPAVAobject@@HHHH@Z 10048c90 f     flash.obj
 0001:00047d20       ?getCI@Aflash@@UAEPAVACI@@XZ 10048d20 f i   flash.obj
 0001:00047d30       ?command@Aflash@@UAEXPAD0@Z 10048d30 f i   flash.obj
 0001:00047d40       ?varChange@Aflash@@UAEXPAD0@Z 10048d40 f i   flash.obj
 0001:00047d50       ??1Aflash@@UAE@XZ          10048d50 f     flash.obj
 0001:00047db0       ?play@Aflash@@QAEXPAD@Z    10048db0 f     flash.obj
 0001:00047dc0       ?play@Aflash@@QAEXPAVAresobj@@@Z 10048dc0 f     flash.obj
 0001:00047dd0       ?pulse@Aflash@@UAEXXZ      10048dd0 f     flash.obj
 0001:00047e00       ?mouse@Aflash@@UAE_NHHHH@Z 10048e00 f     flash.obj
 0001:00047e90       ?keyboard@Aflash@@QAE_NHHH@Z 10048e90 f     flash.obj
 0001:00047f20       ?getVars@Aflash@@QAEPAVAflashVars@@XZ 10048f20 f     flash.obj
 0001:00048010       ??_EAflash@@UAEPAXI@Z      10049010 f i   flash.obj
 0001:00048070       ??0Apoint@@QAE@HH@Z        10049070 f i   font.obj
 0001:00048090       ?NCcalcChar@Afont@@AAEXH@Z 10049090 f     font.obj
 0001:00048270       ??0Afont@@QAE@PAD0HH0HH@Z  10049270 f     font.obj
 0001:00048320       ?getCI@Afont@@UAEPAVACI@@XZ 10049320 f i   font.obj
 0001:00048330       ??0Afont@@QAE@PADPAVAresobj@@HH0HH@Z 10049330 f     font.obj
 0001:000483e0       ??0Afont@@QAE@PADPAVAresobj@@HH@Z 100493e0 f     font.obj
 0001:00048480       ??1Afont@@UAE@XZ           10049480 f     font.obj
 0001:00048500       ?set@Afont@@UAE_NPAVAbitmap@@HHPADIIH@Z 10049500 f     font.obj
 0001:000485d0       ?NCalign@@YAXPAVAfont@@PAVAbitmap@@HHHPADIH@Z 100495d0 f     font.obj
 0001:00048690       ?setAlign@Afont@@UAE_NPAVAbitmap@@HHHPADIH@Z 10049690 f     font.obj
 0001:00048790       ?set@Afont@@UAE_NPAVAbitmap@@HHPADI@Z 10049790 f     font.obj
 0001:00048b40       ?setFixed@Afont@@UAE_NPAVAbitmap@@HHPADIH@Z 10049b40 f     font.obj
 0001:00048ef0       ?getWidth@Afont@@UAEHPAD@Z 10049ef0 f     font.obj
 0001:00048f60       ?getHeight@Afont@@UAEHPAD@Z 10049f60 f     font.obj
 0001:00048fc0       ?getRectangle@Afont@@UAE?AVArectangle@@HHPADHH@Z 10049fc0 f     font.obj
 0001:00049120       ?getPosition@Afont@@UAE?AVApoint@@PADH@Z 1004a120 f     font.obj
 0001:000491e0       ??_EAfont@@UAEPAXI@Z       1004a1e0 f i   font.obj
 0001:00049240       ??0AftpSocket@@QAE@XZ      1004a240 f i   ftp.obj
 0001:00049520       ?sendFile@AftpClient@@UAE_NPADPAVAfile@@@Z 1004a520 f     ftp.obj
 0001:00049680       ?run@AftpClient@@UAEXXZ    1004a680 f     ftp.obj
 0001:00049880       ?connect@AftpClient@@QAEXXZ 1004a880 f     ftp.obj
 0001:00049b40       ?disconnect@AftpClient@@QAEXXZ 1004ab40 f     ftp.obj
 0001:00049b80       ?isOK@AftpClient@@UAE_NXZ  1004ab80 f     ftp.obj
 0001:00049b90       ?getStatus@AftpClient@@QAEHXZ 1004ab90 f     ftp.obj
 0001:00049bc0       ??0AftpClient@@QAE@PAD00@Z 1004abc0 f     ftp.obj
 0001:00049cf0       ?getCI@AftpClient@@UAEPAVACI@@XZ 1004acf0 f i   ftp.obj
 0001:00049d00       ??1AftpClient@@UAE@XZ      1004ad00 f     ftp.obj
 0001:00049e00       ??_EAftpClient@@UAEPAXI@Z  1004ae00 f i   ftp.obj
 0001:00049e60       ??_EAftpClient@@WCA@AEPAXI@Z 1004ae60 f i   ftp.obj
 0001:00049e70       ??0Alib@@QAE@XZ            1004ae70 f     interface.obj
 0001:00049ea0       ??1Alib@@UAE@XZ            1004aea0 f     interface.obj
 0001:00049ed0       ?getFont@Alib@@QAEPAVAfont@@H@Z 1004aed0 f     interface.obj
 0001:0004aaa0       ?Aexit@@YAXH@Z             1004baa0 f     interface.obj
 0001:0004aac0       ?initAlib@@YAXXZ           1004bac0 f     interface.obj
 0001:0004aad0       ?runAlib@@YAHXZ            1004bad0 f     interface.obj
 0001:0004aae0       ?freeAlib@@YAXXZ           1004bae0 f     interface.obj
 0001:0004aaf0       _DllMain@12                1004baf0 f     interface.obj
 0001:0004ab00       ?mailto@@YAXPAD@Z          1004bb00 f     interface.obj
 0001:0004ad10       ?httpto@@YAXPAD@Z          1004bd10 f     interface.obj
 0001:0004ae70       ?exec@@YA_NPAD@Z           1004be70 f     interface.obj
 0001:0004aee0       ?regsrv@@YAXPAD_N@Z        1004bee0 f     interface.obj
 0001:0004af20       ?getCPUcount@@YAHXZ        1004bf20 f     interface.obj
 0001:0004af60       ??_EAlib@@UAEPAXI@Z        1004bf60 f i   interface.obj
 0001:0004afc0       ??0Aitem@@QAE@PAV0@@Z      1004bfc0 f     item.obj
 0001:0004b010       ?getCI@Aitem@@UAEPAVACI@@XZ 1004c010 f i   item.obj
 0001:0004b020       ??0Aitem@@QAE@PAD@Z        1004c020 f     item.obj
 0001:0004b050       ??0Aitem@@QAE@PADPAVAnode@@1H@Z 1004c050 f     item.obj
 0001:0004b090       ??0Aitem@@QAE@PADPAVAnode@@H1@Z 1004c090 f     item.obj
 0001:0004b0d0       ??0Aitem@@QAE@PAD0@Z       1004c0d0 f     item.obj
 0001:0004b120       ??0Aitem@@QAE@PAD0PAVAnode@@1H@Z 1004c120 f     item.obj
 0001:0004b170       ??0Aitem@@QAE@PAD0PAVAnode@@H1@Z 1004c170 f     item.obj
 0001:0004b1c0       ??1Aitem@@UAE@XZ           1004c1c0 f     item.obj
 0001:0004b240       ?copyAll@Aitem@@QAEXPAV1@@Z 1004c240 f     item.obj
 0001:0004b2d0       ??_EAitem@@UAEPAXI@Z       1004c2d0 f i   item.obj
 0001:0004b330       ??1Alist@@UAE@XZ           1004c330 f     list.obj
 0001:0004b340       ?getCI@Alist@@UAEPAVACI@@XZ 1004c340 f i   list.obj
 0001:0004b350       ?notify@Alist@@UAE_NPAVAnode@@HI@Z 1004c350 f     list.obj
 0001:0004b3b0       ?mouse@Alist@@UAE_NHHHH@Z  1004c3b0 f     list.obj
 0001:0004b450       ?NCdisplay@Alist@@UAEXXZ   1004c450 f     list.obj
 0001:0004b590       ?setCurrent@Alist@@QAE_NPAVAitem@@@Z 1004c590 f     list.obj
 0001:0004b5d0       ?setCurrentByData@Alist@@QAE_NH@Z 1004c5d0 f     list.obj
 0001:0004b640       ?setCurrentByLink@Alist@@QAE_NPAVAnode@@@Z 1004c640 f     list.obj
 0001:0004b6b0       ?setCurrentByName@Alist@@QAE_NPAD@Z 1004c6b0 f     list.obj
 0001:0004b740       ??_EAlist@@UAEPAXI@Z       1004c740 f i   list.obj
 0001:0004b7a0       ??0Alist@@QAE@PADPAVAobject@@HHHHPAVAitem@@@Z 1004c7a0 f     list.obj
 0001:0004b820       ??0Arectangle@@QAE@AAV0@@Z 1004c820 f i   menu.obj
 0001:0004b840       ??1Amenu@@UAE@XZ           1004c840 f     menu.obj
 0001:0004b8b0       ?getCI@Amenu@@UAEPAVACI@@XZ 1004c8b0 f i   menu.obj
 0001:0004b8c0       ?notify@Amenu@@UAE_NPAVAnode@@HI@Z 1004c8c0 f     menu.obj
 0001:0004b940       ?paint@Amenu@@UAEXPAVAbitmap@@@Z 1004c940 f     menu.obj
 0001:0004bc10       ?pulse@Amenu@@UAEXXZ       1004cc10 f     menu.obj
 0001:0004bdd0       ?NCcalculate@Amenu@@QAEXXZ 1004cdd0 f     menu.obj
 0001:0004bfc0       ??_EAmenu@@UAEPAXI@Z       1004cfc0 f i   menu.obj
 0001:0004c020       ??0Amenu@@QAE@PADPAVAobject@@PAVAitem@@1H2@Z 1004d020 f     menu.obj
 0001:0004c200       ?mouse@Amenu@@UAE_NHHHH@Z  1004d200 f     menu.obj
 0001:0004c630       _IsEqualGUID               1004d630 f i   movie.obj
 0001:0004c6d0       _==                        1004d6d0 f i   movie.obj
 0001:0004c6e0       ??0Abitmap@@QAE@ABV0@@Z    1004d6e0 f i   movie.obj
 0001:0004c780       ??0bitmapL@@QAE@PAVAbitmap@@PAV0@1M@Z 1004d780 f i   movie.obj
 0001:0004c930       ?getFileInfo@Amovie@@SA_NPAVAmovieFileInfo@@PAD@Z 1004d930 f     movie.obj
 0001:0004cd40       ?getSnapshot@Amovie@@SAPAVAbitmap@@PADPAM@Z 1004dd40 f     movie.obj
 0001:0004d110       ??0Amovie@@QAE@PADHHH@Z    1004e110 f     movie.obj
 0001:0004d1e0       ?getCI@Amovie@@UAEPAVACI@@XZ 1004e1e0 f i   movie.obj
 0001:0004d1f0       ??0Amovie@@QAE@PADHHM@Z    1004e1f0 f     movie.obj
 0001:0004d300       ?del@Amovie@@QAE_NPAVbitmapL@@@Z 1004e300 f     movie.obj
 0001:0004d3e0       ?remove@Amovie@@QAE_NH@Z   1004e3e0 f     movie.obj
 0001:0004d570       ?select@Amovie@@QAE_NH@Z   1004e570 f     movie.obj
 0001:0004d930       ?get@Amovie@@QAEPAVAbitmap@@H@Z 1004e930 f     movie.obj
 0001:0004daa0       ?get@Amovie@@QAE_NPAVAbitmap@@H@Z 1004eaa0 f     movie.obj
 0001:0004ddc0       ?get@Amovie@@QAE_NPAVAbitmap@@HHHHHHHHHHMIH@Z 1004edc0 f     movie.obj
 0001:0004e050       ?getFPS@Amovie@@QAEMXZ     1004f050 f     movie.obj
 0001:0004e060       ?open@Amovie@@QAE_NPAD@Z   1004f060 f     movie.obj
 0001:0004e560       ?close@Amovie@@QAEXXZ      1004f560 f     movie.obj
 0001:0004e6a0       ?openFLI@Amovie@@QAE_NPAD@Z 1004f6a0 f     movie.obj
 0001:0004e940       ?closeFLI@Amovie@@QAEXXZ   1004f940 f     movie.obj
 0001:0004e980       ??0Amovie@@QAE@PAD0@Z      1004f980 f     movie.obj
 0001:0004ebb0       ?clear@Amovie@@QAEXXZ      1004fbb0 f     movie.obj
 0001:0004ebe0       ?insert@Amovie@@QAE_NPAVAbitmap@@H@Z 1004fbe0 f     movie.obj
 0001:0004f080       ?append@Amovie@@QAE_NPAVAbitmap@@H@Z 10050080 f     movie.obj
 0001:0004f450       ??1Amovie@@UAE@XZ          10050450 f     movie.obj
 0001:0004f500       ??_EAmovie@@UAEPAXI@Z      10050500 f i   movie.obj
 0001:0004f560       ??0Amsgbox@@QAE@PADPAVAobject@@00HH@Z 10050560 f     msgbox.obj
 0001:0004f7b0       ?getCI@Amsgbox@@UAEPAVACI@@XZ 100507b0 f i   msgbox.obj
 0001:0004f7c0       ??1Amsgbox@@UAE@XZ         100507c0 f     msgbox.obj
 0001:0004f7d0       ?getValue@Amsgbox@@QAEHXZ  100507d0 f     msgbox.obj
 0001:0004f7e0       ?msgbox@Amsgbox@@SAHPAVAobject@@PAD1HH@Z 100507e0 f     msgbox.obj
 0001:0004f870       ??_EAmsgbox@@UAEPAXI@Z     10050870 f i   msgbox.obj
 0001:0004f8d0       ??0asyncMessage@@QAE@PAVAnode@@0HI@Z 100508d0 f i   node.obj
 0001:0004f8f0       ??0ACI@@QAE@PAD_KPAV0@HPAVAproperties@@@Z 100508f0 f     node.obj
 0001:0004f940       ??1ACI@@UAE@XZ             10050940 f     node.obj
 0001:0004f980       ??0Anode@@QAE@PADPAV0@@Z   10050980 f     node.obj
 0001:0004f9e0       ?getCI@Anode@@UAEPAVACI@@XZ 100509e0 f i   node.obj
 0001:0004f9f0       ??1Anode@@UAE@XZ           100509f0 f     node.obj
 0001:0004fa40       ?is@Anode@@QAE_NPAD@Z      10050a40 f     node.obj
 0001:0004faa0       ?isCI@Anode@@QAE_NPAVACI@@@Z 10050aa0 f     node.obj
 0001:0004fae0       ?isGUID@Anode@@QAE_N_K@Z   10050ae0 f     node.obj
 0001:0004fb20       ?setName@Anode@@QAEXPAD@Z  10050b20 f     node.obj
 0001:0004fb60       ?clear@Anode@@QAEXXZ       10050b60 f     node.obj
 0001:0004fb80       ?add@Anode@@UAEXPAV1@@Z    10050b80 f     node.obj
 0001:0004fc00       ?del@Anode@@UAEXPAV1@@Z    10050c00 f     node.obj
 0001:0004fc40       ?getChild@Anode@@UAEPAV1@PAVACI@@@Z 10050c40 f     node.obj
 0001:0004fc90       ?count@Anode@@QAEHXZ       10050c90 f     node.obj
 0001:0004fcb0       ?sort@Anode@@QAEXH@Z       10050cb0 f     node.obj
 0001:0004fd80       ?asyncNotify@Anode@@QAEXPAV1@HI@Z 10050d80 f     node.obj
 0001:0004fdd0       ??_EACI@@UAEPAXI@Z         10050dd0 f i   node.obj
 0001:0004fe30       ??_EAnode@@UAEPAXI@Z       10050e30 f i   node.obj
 0001:0004fe90       ?add@Arectangle@@QAEXAAV1@@Z 10050e90 f i   object.obj
 0001:0004ff00       ??0Aobject@@QAE@PADPAV0@HHHH@Z 10050f00 f     object.obj
 0001:0004ffa0       ?getCI@Aobject@@UAEPAVACI@@XZ 10050fa0 f i   object.obj
 0001:0004ffb0       ?paint@Aobject@@UAEXPAVAbitmap@@@Z 10050fb0 f i   object.obj
 0001:0004ffc0       ?update@Aobject@@UAEXPAVAbitmap@@@Z 10050fc0 f     object.obj
 0001:000500a0       ?repaint@Aobject@@UAEX_N@Z 100510a0 f     object.obj
 0001:000500e0       ?repaint@Aobject@@UAEXVArectangle@@_N@Z 100510e0 f     object.obj
 0001:00050120       ?mouseCapture@Aobject@@UAE_N_NPAV1@@Z 10051120 f     object.obj
 0001:00050150       ?cursor@Aobject@@SA_NH@Z   10051150 f     object.obj
 0001:00050160       ?makeCursor@Aobject@@SAHPAVAresobj@@HH@Z 10051160 f     object.obj
 0001:00050170       ?move@Aobject@@UAE_NHH@Z   10051170 f     object.obj
 0001:00050210       ?show@Aobject@@UAE_N_N0@Z  10051210 f     object.obj
 0001:00050260       ?focus@Aobject@@UAE_NPAV1@@Z 10051260 f     object.obj
 0001:00050290       ?timer@Aobject@@UAE_NH@Z   10051290 f     object.obj
 0001:000502b0       ?getWindow@Aobject@@QAEPAVAwindow@@XZ 100512b0 f     object.obj
 0001:000502f0       ?getObject@Aobject@@QAEPAV1@HH@Z 100512f0 f     object.obj
 0001:00050350       ?getPosition@Aobject@@QAE_NPAV1@PAH1@Z 10051350 f     object.obj
 0001:000503a0       ?mousePosition@Aobject@@UAEXPAH0@Z 100513a0 f     object.obj
 0001:00050410       ?getKeyboardState@Aobject@@QAEHXZ 10051410 f     object.obj
 0001:00050580       ?NCdragdrop@Aobject@@UAE_NHHHHPAX@Z 10051580 f     object.obj
 0001:000506a0       ?NCmouse@Aobject@@UAE_NHHHH@Z 100516a0 f     object.obj
 0001:00050850       ?NCzorder@Aobject@@QAE_NPAVAnode@@H@Z 10051850 f     object.obj
 0001:00050960       ?dropText@Aobject@@SAXPAD@Z 10051960 f     object.obj
 0001:00050970       ?destroy@Aobject@@QAEXXZ   10051970 f     object.obj
 0001:000509d0       ??1Aobject@@UAE@XZ         100519d0 f     object.obj
 0001:00050a80       ?zorder@Aobject@@UAE_NH@Z  10051a80 f     object.obj
 0001:00050ab0       ??_EAobject@@UAEPAXI@Z     10051ab0 f i   object.obj
 0001:00050b10       ??1AoglBitmap@@UAE@XZ      10051b10 f     oglbitmap.obj
 0001:00050b50       ?getCI@AoglBitmap@@UAEPAVACI@@XZ 10051b50 f i   oglbitmap.obj
 0001:00050b60       ?makeCurrent@AoglBitmap@@QAEXXZ 10051b60 f     oglbitmap.obj
 0001:00050b70       ?releaseCurrent@AoglBitmap@@QAEXXZ 10051b70 f     oglbitmap.obj
 0001:00050b80       ?set2@AoglBitmap@@QAEXPAVAbitmap@@@Z 10051b80 f     oglbitmap.obj
 0001:00050c00       ?texture@AoglBitmap@@SAXPAVAbitmap@@HHHHH@Z 10051c00 f     oglbitmap.obj
 0001:00050d20       ??_EAoglBitmap@@UAEPAXI@Z  10051d20 f i   oglbitmap.obj
 0001:00050db0       ??0AoglBitmap@@QAE@HH@Z    10051db0 f     oglbitmap.obj
 0001:00050f20       ?texture@AoglBitmap@@SAXPAVAbitmap@@H@Z 10051f20 f     oglbitmap.obj
 0001:00050f40       ?getTickCount@Athread@@SAHXZ 10051f40 f i   pipe.obj
 0001:00050f50       ??0Apipe@@QAE@PADH@Z       10051f50 f     pipe.obj
 0001:00051010       ?getCI@Apipe@@UAEPAVACI@@XZ 10052010 f i   pipe.obj
 0001:00051020       ?isConnected@Apipe@@UAE_NXZ 10052020 f     pipe.obj
 0001:00051060       ?waitConnection@Apipe@@UAE_NXZ 10052060 f     pipe.obj
 0001:000510d0       ?flush@Apipe@@UAE_NXZ      100520d0 f     pipe.obj
 0001:00051100       ?avaible@Apipe@@UAEHXZ     10052100 f     pipe.obj
 0001:00051140       ?read@Apipe@@UAEHPAXH@Z    10052140 f     pipe.obj
 0001:000511d0       ?write@Apipe@@UAEHPAXH@Z   100521d0 f     pipe.obj
 0001:00051260       ?writeString@Apipe@@UAE_NPAD@Z 10052260 f     pipe.obj
 0001:000512c0       ?readString@Apipe@@UAE_NPAD@Z 100522c0 f     pipe.obj
 0001:00051310       ?readStringAlloc@Apipe@@UAE_NPAPAD@Z 10052310 f     pipe.obj
 0001:00051380       ?isOK@Apipe@@UAE_NXZ       10052380 f     pipe.obj
 0001:00051390       ??1Apipe@@UAE@XZ           10052390 f     pipe.obj
 0001:000513d0       ??_EApipe@@UAEPAXI@Z       100523d0 f i   pipe.obj
 0001:00051450       ??0Aplugz@@QAE@PAD_K00@Z   10052450 f     plugz.obj
 0001:000514a0       ?getCI@Aplugz@@UAEPAVACI@@XZ 100524a0 f i   plugz.obj
 0001:000514b0       ?create@Aplugz@@UAEPAVAnode@@PAD@Z 100524b0 f i   plugz.obj
 0001:000514c0       ??1Aplugz@@UAE@XZ          100524c0 f     plugz.obj
 0001:00051500       ??_EAplugz@@UAEPAXI@Z      10052500 f i   plugz.obj
 0001:00051580       ??0Aregistry@@QAE@PADH@Z   10052580 f     registry.obj
 0001:00051620       ?getCI@Aregistry@@UAEPAVACI@@XZ 10052620 f i   registry.obj
 0001:00051630       ??1Aregistry@@UAE@XZ       10052630 f     registry.obj
 0001:00051650       ?write@Aregistry@@UAE_NPAD0@Z 10052650 f     registry.obj
 0001:000516a0       ?read@Aregistry@@UAE_NPAD0H@Z 100526a0 f     registry.obj
 0001:000516e0       ?read@Aregistry@@UAE_NPADPAH@Z 100526e0 f     registry.obj
 0001:00051720       ?write@Aregistry@@UAE_NPADH@Z 10052720 f     registry.obj
 0001:00051750       ?read@Aregistry@@UAE_NPADPA_N@Z 10052750 f     registry.obj
 0001:00051790       ?write@Aregistry@@UAE_NPAD_N@Z 10052790 f     registry.obj
 0001:000517c0       ?subEnum@Aregistry@@UAE_NHPADH@Z 100527c0 f     registry.obj
 0001:000517f0       ??_EAregistry@@UAEPAXI@Z   100527f0 f i   registry.obj
 0001:00051860       ??0Aresobj@@QAE@PAVAresource@@PAD1@Z 10052860 f     resources.obj
 0001:000518b0       ?getCI@Aresobj@@UAEPAVACI@@XZ 100528b0 f i   resources.obj
 0001:000518c0       ?getSize@Aresobj@@UAEHXZ   100528c0 f     resources.obj
 0001:000518e0       ?lock@Aresobj@@UAEPAXXZ    100528e0 f     resources.obj
 0001:00051920       ?unlock@Aresobj@@UAEXXZ    10052920 f     resources.obj
 0001:00051930       ??0Aresource@@QAE@PADPAUHINSTANCE__@@@Z 10052930 f     resources.obj
 0001:00051960       ?getCI@Aresource@@UAEPAVACI@@XZ 10052960 f i   resources.obj
 0001:00051970       ??1Aresource@@UAE@XZ       10052970 f     resources.obj
 0001:00051980       ?getObj@Aresource@@UAEPAVAresobj@@PAD0@Z 10052980 f     resources.obj
 0001:000519f0       ??_EAresource@@UAEPAXI@Z   100529f0 f i   resources.obj
 0001:00051a50       ??1Aresobj@@UAE@XZ         10052a50 f     resources.obj
 0001:00051a80       ?get@Aresource@@UAE?AVAresobj@@PAD0@Z 10052a80 f     resources.obj
 0001:00051ae0       ??_EAresobj@@UAEPAXI@Z     10052ae0 f i   resources.obj
 0001:00051b60       ??0AscrollBar@@QAE@PADPAVAobject@@HHHHH@Z 10052b60 f     scrollbar.obj
 0001:00051bd0       ?getCI@AscrollBar@@UAEPAVACI@@XZ 10052bd0 f i   scrollbar.obj
 0001:00051be0       ?getPosition@AscrollBar@@UAEMXZ 10052be0 f i   scrollbar.obj
 0001:00051bf0       ?getView@AscrollBar@@UAEMXZ 10052bf0 f i   scrollbar.obj
 0001:00051c00       ??1AscrollBar@@UAE@XZ      10052c00 f     scrollbar.obj
 0001:00051c10       ?paint@AscrollBar@@UAEXPAVAbitmap@@@Z 10052c10 f     scrollbar.obj
 0001:00051d80       ?mouse@AscrollBar@@UAE_NHHHH@Z 10052d80 f     scrollbar.obj
 0001:00051e70       ?calcMouse@AscrollBar@@EAEXHH@Z 10052e70 f     scrollbar.obj
 0001:00051f40       ?setPosition@AscrollBar@@UAEXM@Z 10052f40 f     scrollbar.obj
 0001:00051f80       ?setView@AscrollBar@@UAEXM@Z 10052f80 f     scrollbar.obj
 0001:00051fe0       ??_EAscrollBar@@UAEPAXI@Z  10052fe0 f i   scrollbar.obj
 0001:00052040       ??0Asection@@QAE@XZ        10053040 f     section.obj
 0001:00052060       ??1Asection@@UAE@XZ        10053060 f     section.obj
 0001:00052080       ?enter@Asection@@UAE_N_N@Z 10053080 f     section.obj
 0001:000520b0       ?leave@Asection@@UAEXXZ    100530b0 f     section.obj
 0001:000520c0       ??_EAsection@@UAEPAXI@Z    100530c0 f i   section.obj
 0001:00052120       ??0Asegment@@QAE@PADPAVAobject@@HHHHHPAVAfont@@IMH@Z 10053120 f     segment.obj
 0001:000521d0       ?getCI@Asegment@@UAEPAVACI@@XZ 100531d0 f i   segment.obj
 0001:000521e0       ??1Asegment@@UAE@XZ        100531e0 f     segment.obj
 0001:000521f0       ?paint@Asegment@@UAEXPAVAbitmap@@@Z 100531f0 f     segment.obj
 0001:000522c0       ?mouse@Asegment@@UAE_NHHHH@Z 100532c0 f     segment.obj
 0001:00052400       ?get@Asegment@@UAEHXZ      10053400 f     segment.obj
 0001:00052410       ?set@Asegment@@UAEXH@Z     10053410 f     segment.obj
 0001:00052440       ?setMax@Asegment@@UAEXH@Z  10053440 f     segment.obj
 0001:00052460       ??_EAsegment@@UAEPAXI@Z    10053460 f i   segment.obj
 0001:000524c0       ??1AselButton@@UAE@XZ      100534c0 f     selButton.obj
 0001:00052530       ?getCI@AselButton@@UAEPAVACI@@XZ 10053530 f i   selButton.obj
 0001:00052540       ?mouse@AselButton@@UAE_NHHHH@Z 10053540 f     selButton.obj
 0001:00052640       ?change@AselButton@@QAEXPAVAbitmap@@@Z 10053640 f     selButton.obj
 0001:00052670       ?change@AselButton@@QAEXHH@Z 10053670 f     selButton.obj
 0001:000526b0       ?set@AselButton@@UAEXH@Z   100536b0 f     selButton.obj
 0001:000526e0       ?get@AselButton@@UAEHXZ    100536e0 f     selButton.obj
 0001:000526f0       ?paint@AselButton@@UAEXPAVAbitmap@@@Z 100536f0 f     selButton.obj
 0001:00052910       ??_EAselButton@@UAEPAXI@Z  10053910 f i   selButton.obj
 0001:00052970       ??0AselButton@@QAE@PADPAVAobject@@HHHHPAVAresobj@@HH0@Z 10053970 f     selButton.obj
 0001:00052a90       ??0AselButton@@QAE@PADPAVAobject@@HHHHPAVAbitmap@@HH0@Z 10053a90 f     selButton.obj
 0001:00052be0       ??0Aserial@@QAE@PAD@Z      10053be0 f     serial.obj
 0001:00052c70       ?getCI@Aserial@@UAEPAVACI@@XZ 10053c70 f i   serial.obj
 0001:00052c80       ?isOK@Aserial@@UAE_NXZ     10053c80 f     serial.obj
 0001:00052c90       ?configure@Aserial@@QAE_NIIII_N0@Z 10053c90 f     serial.obj
 0001:00052d30       ?timeouts@Aserial@@QAE_NIIIII@Z 10053d30 f     serial.obj
 0001:00052da0       ?read@Aserial@@UAEHPAXH@Z  10053da0 f     serial.obj
 0001:00052dd0       ?write@Aserial@@UAEHPAXH@Z 10053dd0 f     serial.obj
 0001:00052e00       ?flush@Aserial@@UAEXXZ     10053e00 f     serial.obj
 0001:00052e10       ?readStringAlloc@Aserial@@UAE_NPAPAD@Z 10053e10 f     serial.obj
 0001:00052e80       ?readString@Aserial@@UAE_NPAD@Z 10053e80 f     serial.obj
 0001:00052ed0       ?writeString@Aserial@@UAE_NPAD@Z 10053ed0 f     serial.obj
 0001:00052f30       ?seek@Aserial@@UAE_N_J@Z   10053f30 f     serial.obj
 0001:00052f40       ?getSize@Aserial@@UAE_JXZ  10053f40 f     serial.obj
 0001:00052f50       ??1Aserial@@UAE@XZ         10053f50 f     serial.obj
 0001:00052f80       ??_EAserial@@UAEPAXI@Z     10053f80 f i   serial.obj
 0001:00052ff0       ??0Astatic@@QAE@PADPAVAobject@@HHPAVAresobj@@@Z 10053ff0 f     static.obj
 0001:000530b0       ?getCI@Astatic@@UAEPAVACI@@XZ 100540b0 f i   static.obj
 0001:000530c0       ??0Astatic@@QAE@PADPAVAobject@@HHHH@Z 100540c0 f     static.obj
 0001:00053100       ??1Astatic@@UAE@XZ         10054100 f     static.obj
 0001:00053110       ?set@Astatic@@UAEXPADIPAVAfont@@H@Z 10054110 f     static.obj
 0001:000531c0       ??_EAstatic@@UAEPAXI@Z     100541c0 f i   static.obj
 0001:00053220       ??0Asurface@@QAE@PADPAVAobject@@HHHH@Z 10054220 f     surface.obj
 0001:000532c0       ?getCI@Asurface@@UAEPAVACI@@XZ 100542c0 f i   surface.obj
 0001:000532d0       ??1Asurface@@UAE@XZ        100542d0 f     surface.obj
 0001:00053330       ?paint@Asurface@@UAEXPAVAbitmap@@@Z 10054330 f     surface.obj
 0001:00053360       ?size@Asurface@@UAE_NHH@Z  10054360 f     surface.obj
 0001:000533a0       ??_EAsurface@@UAEPAXI@Z    100543a0 f i   surface.obj
 0001:00053430       ??0Athread@@QAE@XZ         10054430 f     thread.obj
 0001:00053450       ?start@Athread@@QAE_NXZ    10054450 f     thread.obj
 0001:00053490       ?stop@Athread@@QAE_NXZ     10054490 f     thread.obj
 0001:000534c0       ?sleep@Athread@@SAXH@Z     100544c0 f     thread.obj
 0001:000534d0       ?isRunning@Athread@@QAE_NXZ 100544d0 f     thread.obj
 0001:000534e0       ?setPriority@Athread@@QAEXH@Z 100544e0 f     thread.obj
 0001:000535a0       ?getPriority@Athread@@QAEHXZ 100545a0 f     thread.obj
 0001:000535b0       ?setClass@Athread@@SAXH@Z  100545b0 f     thread.obj
 0001:00053610       ?getClass@Athread@@SAHXZ   10054610 f     thread.obj
 0001:00053650       ?setCurrentThreadPriority@Athread@@SAXH@Z 10054650 f     thread.obj
 0001:000536b0       ?getCpuTime@Athread@@SANXZ 100546b0 f     thread.obj
 0001:00053740       ?getTime@Athread@@SANXZ    10054740 f     thread.obj
 0001:00053770       ??1Athread@@UAE@XZ         10054770 f     thread.obj
 0001:000537a0       ??_EAthread@@UAEPAXI@Z     100547a0 f i   thread.obj
 0001:00053820       ??1AtitleBar@@UAE@XZ       10054820 f     titleBar.obj
 0001:000538b0       ?getCI@AtitleBar@@UAEPAVACI@@XZ 100548b0 f i   titleBar.obj
 0001:000538c0       ?getCaption@AtitleBar@@UAEPADXZ 100548c0 f i   titleBar.obj
 0001:000538d0       ?draw@AtitleBar@@UAEXXZ    100548d0 f     titleBar.obj
 0001:00053940       ?mouse@AtitleBar@@UAE_NHHHH@Z 10054940 f     titleBar.obj
 0001:00053950       ?notify@AtitleBar@@UAE_NPAVAnode@@HI@Z 10054950 f     titleBar.obj
 0001:000539a0       ?setCaption@AtitleBar@@UAEXPAD@Z 100549a0 f     titleBar.obj
 0001:000539e0       ??_EAtitleBar@@UAEPAXI@Z   100549e0 f i   titleBar.obj
 0001:00053a40       ??0AtitleBar@@QAE@PADPAVAobject@@HHHH0@Z 10054a40 f     titleBar.obj
 0001:00053ca0       ??0Atool@@QAE@PADPAVAobject@@HHPAVAresobj@@H@Z 10054ca0 f     toolbar.obj
 0001:00053d70       ?getCI@Atool@@UAEPAVACI@@XZ 10054d70 f i   toolbar.obj
 0001:00053d80       ??1Atool@@UAE@XZ           10054d80 f     toolbar.obj
 0001:00053de0       ?paint@Atool@@UAEXPAVAbitmap@@@Z 10054de0 f     toolbar.obj
 0001:00053e30       ?mouse@Atool@@UAE_NHHHH@Z  10054e30 f     toolbar.obj
 0001:00053f00       ??0AtoolBar@@QAE@PADPAVAobject@@HHHHH@Z 10054f00 f     toolbar.obj
 0001:00053f60       ?getCI@AtoolBar@@UAEPAVACI@@XZ 10054f60 f i   toolbar.obj
 0001:00053f70       ??1AtoolBar@@UAE@XZ        10054f70 f     toolbar.obj
 0001:00053f80       ?paint@AtoolBar@@UAEXPAVAbitmap@@@Z 10054f80 f     toolbar.obj
 0001:00053fe0       ?notify@AtoolBar@@UAE_NPAVAnode@@HI@Z 10054fe0 f     toolbar.obj
 0001:00054060       ?set@AtoolBar@@QAEXH@Z     10055060 f     toolbar.obj
 0001:000540b0       ?enable@AtoolBar@@QAEXH_N@Z 100550b0 f     toolbar.obj
 0001:00054110       ?enableAll@AtoolBar@@QAEX_N@Z 10055110 f     toolbar.obj
 0001:00054170       ?addSeparator@AtoolBar@@QAEXXZ 10055170 f     toolbar.obj
 0001:000541b0       ?add@AtoolBar@@QAEXPAD0PAVAresobj@@H@Z 100551b0 f     toolbar.obj
 0001:000542f0       ??_EAtoolBar@@UAEPAXI@Z    100552f0 f i   toolbar.obj
 0001:00054350       ??_EAtool@@UAEPAXI@Z       10055350 f i   toolbar.obj
 0001:000543b0       ??0Atooltips@@QAE@PADPAVAobject@@@Z 100553b0 f     tooltips.obj
 0001:00054430       ?getCI@Atooltips@@UAEPAVACI@@XZ 10055430 f i   tooltips.obj
 0001:00054440       ??1Atooltips@@UAE@XZ       10055440 f     tooltips.obj
 0001:00054450       ?set@Atooltips@@QAEXHHPAD@Z 10055450 f     tooltips.obj
 0001:000544f0       ?set@Atooltips@@QAEXPAVAobject@@PAD@Z 100554f0 f     tooltips.obj
 0001:00054620       ?pulse@Atooltips@@UAEXXZ   10055620 f     tooltips.obj
 0001:00054690       ?paint@Atooltips@@UAEXPAVAbitmap@@@Z 10055690 f     tooltips.obj
 0001:00054710       ??_EAtooltips@@UAEPAXI@Z   10055710 f i   tooltips.obj
 0001:00054770       ??0AtreeInfo@@QAE@XZ       10055770 f i   treeView.obj
 0001:00054790       ??1AtreeView@@UAE@XZ       10055790 f     treeView.obj
 0001:000547f0       ?getCI@AtreeView@@UAEPAVACI@@XZ 100557f0 f i   treeView.obj
 0001:00054800       ?deselect@AtreeView@@AAEXPAVAitem@@@Z 10055800 f     treeView.obj
 0001:00054830       ?collaps@AtreeView@@AAEXPAVAitem@@@Z 10055830 f     treeView.obj
 0001:00054870       ?drawBranchs@AtreeView@@AAEXPAVAbitmap@@HHH@Z 10055870 f     treeView.obj
 0001:000548a0       ?paint@AtreeView@@UAEXPAVAbitmap@@@Z 100558a0 f     treeView.obj
 0001:00054ac0       ?calcInfo@AtreeView@@AAEXXZ 10055ac0 f     treeView.obj
 0001:00054ee0       ??_EAtreeView@@UAEPAXI@Z   10055ee0 f i   treeView.obj
 0001:00054f40       ??0AtreeView@@QAE@PADPAVAobject@@HHHHPAVAitem@@@Z 10055f40 f     treeView.obj
 0001:000550a0       ?size@AtreeView@@UAE_NHH@Z 100560a0 f     treeView.obj
 0001:000550d0       ?refresh@AtreeView@@QAEXXZ 100560d0 f     treeView.obj
 0001:000550f0       ?view@AtreeView@@AAEXPAVAitem@@@Z 100560f0 f     treeView.obj
 0001:000551c0       ?mouse@AtreeView@@UAE_NHHHH@Z 100561c0 f     treeView.obj
 0001:00055480       ?align@AtreeView@@AAEXPAVAitem@@@Z 10056480 f     treeView.obj
 0001:00055510       ?setCurrent@AtreeView@@QAEXPAVAitem@@@Z 10056510 f     treeView.obj
 0001:00055540       ?load_fli@@YAPAUfli@@PADW4fli_source@@@Z 10056540 f     WFLILIB.obj
 0001:00055760       ?flicolor@@YAXPAUfli@@PAD@Z 10056760 f     WFLILIB.obj
 0001:00055820       ?flicolor256@@YAXPAUfli@@PAD@Z 10056820 f     WFLILIB.obj
 0001:000558e0       ?flicolor256to64@@YAXPAD@Z 100568e0 f     WFLILIB.obj
 0001:00055950       ?flibrun@@YAXPAD0FF@Z      10056950 f     WFLILIB.obj
 0001:00055a10       ?flilc@@YAXPAD0F0@Z        10056a10 f     WFLILIB.obj
 0001:00055b10       ?fliss2@@YAXPAD0F@Z        10056b10 f     WFLILIB.obj
 0001:00055c20       ?play_frame@@YAFPAUfli@@PADF@Z 10056c20 f     WFLILIB.obj
 0001:00055e50       ?close_fli@@YAXPAUfli@@@Z  10056e50 f     WFLILIB.obj
 0001:00055e90       ??1Adroptarget@@QAE@XZ     10056e90 f i   window.obj
 0001:00055ea0       ?setWindow@Adroptarget@@QAEXPAVAwindow@@@Z 10056ea0 f i   window.obj
 0001:00055eb0       ?AddRef@Adroptarget@@UAGKXZ 10056eb0 f i   window.obj
 0001:00055ed0       ?Release@Adroptarget@@UAGKXZ 10056ed0 f i   window.obj
 0001:00055ef0       ??0IUnknown@@QAE@XZ        10056ef0 f i   window.obj
 0001:00055f00       ??1Adropsource@@QAE@XZ     10056f00 f i   window.obj
 0001:00055f10       ?AddRef@Adropsource@@UAGKXZ 10056f10 f i   window.obj
 0001:00055f30       ??0IDropSource@@QAE@XZ     10056f30 f i   window.obj
 0001:00055f40       ??_GAdropsource@@QAEPAXI@Z 10056f40 f i   window.obj
 0001:00055f60       ?add@Awindowlist@@SAXPAVAwindow@@@Z 10056f60 f     window.obj
 0001:00055fb0       ?del@Awindowlist@@SAXPAVAwindow@@@Z 10056fb0 f     window.obj
 0001:00056020       ?showOff@Awindowlist@@SAXXZ 10057020 f     window.obj
 0001:00056060       ??0Aidle@@QAE@XZ           10057060 f     window.obj
 0001:000560a0       ??1Aidle@@UAE@XZ           100570a0 f     window.obj
 0001:00056140       ?closeWindow@@YAXH@Z       10057140 f i   window.obj
 0001:00056190       ??_GAdroptarget@@QAEPAXI@Z 10057190 f i   window.obj
 0001:000561b0       ?NCshowOff@Awindow@@SAXXZ  100571b0 f     window.obj
 0001:000561c0       ?NCasyncNotify@Awindow@@SAXPAVasyncMessage@@@Z 100571c0 f     window.obj
 0001:000561e0       ?minimize@Awindow@@QAE_N_N@Z 100571e0 f     window.obj
 0001:00056210       ?isMinimized@Awindow@@QAE_NXZ 10057210 f     window.obj
 0001:00056240       ?show@Awindow@@UAE_N_N@Z   10057240 f     window.obj
 0001:00056270       ?move@Awindow@@UAE_NHH@Z   10057270 f     window.obj
 0001:000562b0       ?size@Awindow@@UAE_NHH@Z   100572b0 f     window.obj
 0001:000562f0       ?zorder@Awindow@@UAE_NH@Z  100572f0 f     window.obj
 0001:00056360       ?mouseCapture@Awindow@@UAE_N_NPAVAobject@@@Z 10057360 f     window.obj
 0001:000563e0       ?focus@Awindow@@UAE_NPAVAobject@@@Z 100573e0 f     window.obj
 0001:00056450       ?repaint@Awindow@@UAEX_N@Z 10057450 f     window.obj
 0001:00056490       ?repaint@Awindow@@UAEXVArectangle@@_N@Z 10057490 f     window.obj
 0001:00056750       ?del@Awindow@@UAEXPAVAnode@@@Z 10057750 f     window.obj
 0001:000567a0       ?NCsystem@Awindow@@SA_NPAVAobject@@HII@Z 100577a0 f     window.obj
 0001:000567f0       ?NCmouse@Awindow@@MAE_NHHHH@Z 100577f0 f     window.obj
 0001:00056890       ?NCnotify@Awindow@@UAEIIII@Z 10057890 f     window.obj
 0001:00057080       ?timerFunction@@YAXXZ      10058080 f     window.obj
 0001:00057150       ?NCglobalTimer@@YA_NPAVAobject@@H@Z 10058150 f     window.obj
 0001:00057230       ?NCmakeCursor@Awindow@@SAHPAVAresobj@@HH@Z 10058230 f     window.obj
 0001:000574e0       ?NCcursor@Awindow@@SA_NH@Z 100584e0 f     window.obj
 0001:000576b0       ?NCdestroy@@YAXPAVAobject@@@Z 100586b0 f     window.obj
 0001:00057700       ?destroyList@@YAXXZ        10058700 f     window.obj
 0001:00057750       ?QueryInterface@Adroptarget@@UAGJABU_GUID@@PAPAX@Z 10058750 f     window.obj
 0001:000577b0       ?NCdragEnter@Awindow@@QAE_NHHPAUIDataObject@@KPAK@Z 100587b0 f     window.obj
 0001:00057930       ?NCdragOver@Awindow@@QAE_NHHKPAK@Z 10058930 f     window.obj
 0001:000579b0       ?NCdragLeave@Awindow@@QAE_NXZ 100589b0 f     window.obj
 0001:000579d0       ?NCdrop@Awindow@@QAE_NHHPAUIDataObject@@KPAK@Z 100589d0 f     window.obj
 0001:00057c10       ?QueryInterface@Adropsource@@UAGJABU_GUID@@PAPAX@Z 10058c10 f     window.obj
 0001:00057c70       ?QueryContinueDrag@Adropsource@@UAGJHK@Z 10058c70 f     window.obj
 0001:00057ca0       ?GiveFeedback@Adropsource@@UAGJK@Z 10058ca0 f     window.obj
 0001:00057cb0       ??0IDataObject@@QAE@XZ     10058cb0 f i   window.obj
 0001:00057cc0       ??1AdropString@@UAE@XZ     10058cc0 f     window.obj
 0001:00057ce0       ?AddRef@AdropString@@UAGKXZ 10058ce0 f i   window.obj
 0001:00057d00       ?Release@AdropString@@UAGKXZ 10058d00 f i   window.obj
 0001:00057d20       ?QueryInterface@AdropString@@UAGJABU_GUID@@PAPAX@Z 10058d20 f     window.obj
 0001:00057d80       ?GetData@AdropString@@UAGJPAUtagFORMATETC@@PAUtagSTGMEDIUM@@@Z 10058d80 f     window.obj
 0001:00057e00       ?GetDataHere@AdropString@@UAGJPAUtagFORMATETC@@PAUtagSTGMEDIUM@@@Z 10058e00 f     window.obj
 0001:00057e10       ?QueryGetData@AdropString@@UAGJPAUtagFORMATETC@@@Z 10058e10 f     window.obj
 0001:00057e40       ?GetCanonicalFormatEtc@AdropString@@UAGJPAUtagFORMATETC@@0@Z 10058e40 f     window.obj
 0001:00057e60       ?SetData@AdropString@@UAGJPAUtagFORMATETC@@PAUtagSTGMEDIUM@@H@Z 10058e60 f     window.obj
 0001:00057e70       ?EnumFormatEtc@AdropString@@UAGJKPAPAUIEnumFORMATETC@@@Z 10058e70 f     window.obj
 0001:00057ec0       ?DAdvise@AdropString@@UAGJPAUtagFORMATETC@@KPAUIAdviseSink@@PAK@Z 10058ec0 f     window.obj
 0001:00057ed0       ?DUnadvise@AdropString@@UAGJK@Z 10058ed0 f     window.obj
 0001:00057ee0       ?EnumDAdvise@AdropString@@UAGJPAPAUIEnumSTATDATA@@@Z 10058ee0 f     window.obj
 0001:00057ef0       ??_EAidle@@UAEPAXI@Z       10058ef0 f i   window.obj
 0001:00057f50       ??0IDropTarget@@QAE@XZ     10058f50 f i   window.obj
 0001:00057f60       ??0Adropsource@@QAE@XZ     10058f60 f i   window.obj
 0001:00057f70       ?Release@Adropsource@@UAGKXZ 10058f70 f i   window.obj
 0001:00057fb0       ??_EAdropString@@UAEPAXI@Z 10058fb0 f i   window.obj
 0001:00058010       ??1Awindow@@UAE@XZ         10059010 f     window.obj
 0001:00058120       ?getCI@Awindow@@UAEPAVACI@@XZ 10059120 f i   window.obj
 0001:00058130       ?notify@Awindow@@UAE_NPAVAnode@@HI@Z 10059130 f i   window.obj
 0001:00058140       ?NCmessageLoop@Awindow@@SAHXZ 10059140 f     window.obj
 0001:000582e0       ?DragEnter@Adroptarget@@UAGJPAUIDataObject@@KU_POINTL@@PAK@Z 100592e0 f     window.obj
 0001:00058320       ?DragOver@Adroptarget@@UAGJKU_POINTL@@PAK@Z 10059320 f     window.obj
 0001:00058360       ?DragLeave@Adroptarget@@UAGJXZ 10059360 f     window.obj
 0001:00058390       ?Drop@Adroptarget@@UAGJPAUIDataObject@@KU_POINTL@@PAK@Z 10059390 f     window.obj
 0001:000583d0       ??0AdropString@@QAE@PAD@Z  100593d0 f     window.obj
 0001:00058410       ??_EAwindow@@UAEPAXI@Z     10059410 f i   window.obj
 0001:00058470       ??0Adroptarget@@QAE@XZ     10059470 f i   window.obj
 0001:00058490       ?wndproc@@YGJPAUHWND__@@IIJ@Z 10059490 f     window.obj
 0001:00058780       ?openWindow@@YAXH@Z        10059780 f i   window.obj
 0001:000588d0       ??0Awindow@@QAE@PADHHHH_N@Z 100598d0 f     window.obj
 0001:00058a40       ??0Awindow@@QAE@PADPAUHWND__@@HHHH_N@Z 10059a40 f     window.obj
 0001:00058bc0       ?dropText@Awindow@@SAXPAD@Z 10059bc0 f     window.obj
 0001:00058c60       _png_create_read_struct    10059c60 f     libpng:pngread.obj
 0001:00058db0       _png_read_init             10059db0 f     libpng:pngread.obj
 0001:00058ea0       _png_read_info             10059ea0 f     libpng:pngread.obj
 0001:00059a60       _png_read_update_info      1005aa60 f     libpng:pngread.obj
 0001:00059a90       _png_start_read_image      1005aa90 f     libpng:pngread.obj
 0001:00059ab0       _png_read_row              1005aab0 f     libpng:pngread.obj
 0001:00059fa0       _png_read_rows             1005afa0 f     libpng:pngread.obj
 0001:0005a040       _png_read_image            1005b040 f     libpng:pngread.obj
 0001:0005a0a0       _png_read_end              1005b0a0 f     libpng:pngread.obj
 0001:0005abe0       _png_read_destroy          1005bbe0 f     libpng:pngread.obj
 0001:0005ae20       _png_set_read_status_fn    1005be20 f     libpng:pngread.obj
 0001:0005ae30       _png_destroy_read_struct   1005be30 f     libpng:pngread.obj
 0001:0005aec0       _png_get_valid             1005bec0 f     libpng:pngget.obj
 0001:0005aee0       _png_get_rowbytes          1005bee0 f     libpng:pngget.obj
 0001:0005af00       _png_get_image_width       1005bf00 f     libpng:pngget.obj
 0001:0005af20       _png_get_image_height      1005bf20 f     libpng:pngget.obj
 0001:0005af40       _png_get_bit_depth         1005bf40 f     libpng:pngget.obj
 0001:0005af60       _png_get_color_type        1005bf60 f     libpng:pngget.obj
 0001:0005af80       _png_get_filter_type       1005bf80 f     libpng:pngget.obj
 0001:0005afa0       _png_get_interlace_type    1005bfa0 f     libpng:pngget.obj
 0001:0005afc0       _png_get_compression_type  1005bfc0 f     libpng:pngget.obj
 0001:0005afe0       _png_get_x_pixels_per_meter 1005bfe0 f     libpng:pngget.obj
 0001:0005b010       _png_get_y_pixels_per_meter 1005c010 f     libpng:pngget.obj
 0001:0005b040       _png_get_pixels_per_meter  1005c040 f     libpng:pngget.obj
 0001:0005b070       _png_get_pixel_aspect_ratio 1005c070 f     libpng:pngget.obj
 0001:0005b0d0       _png_get_x_offset_microns  1005c0d0 f     libpng:pngget.obj
 0001:0005b100       _png_get_y_offset_microns  1005c100 f     libpng:pngget.obj
 0001:0005b130       _png_get_x_offset_pixels   1005c130 f     libpng:pngget.obj
 0001:0005b160       _png_get_y_offset_pixels   1005c160 f     libpng:pngget.obj
 0001:0005b190       _png_get_channels          1005c190 f     libpng:pngget.obj
 0001:0005b1b0       _png_get_signature         1005c1b0 f     libpng:pngget.obj
 0001:0005b1d0       _png_get_bKGD              1005c1d0 f     libpng:pngget.obj
 0001:0005b200       _png_get_cHRM              1005c200 f     libpng:pngget.obj
 0001:0005b2b0       _png_get_gAMA              1005c2b0 f     libpng:pngget.obj
 0001:0005b2e0       _png_get_sRGB              1005c2e0 f     libpng:pngget.obj
 0001:0005b310       _png_get_hIST              1005c310 f     libpng:pngget.obj
 0001:0005b340       _png_get_IHDR              1005c340 f     libpng:pngget.obj
 0001:0005b420       _png_get_oFFs              1005c420 f     libpng:pngget.obj
 0001:0005b470       _png_get_pCAL              1005c470 f     libpng:pngget.obj
 0001:0005b530       _png_get_pHYs              1005c530 f     libpng:pngget.obj
 0001:0005b580       _png_get_PLTE              1005c580 f     libpng:pngget.obj
 0001:0005b5c0       _png_get_sBIT              1005c5c0 f     libpng:pngget.obj
 0001:0005b5f0       _png_get_text              1005c5f0 f     libpng:pngget.obj
 0001:0005b630       _png_get_tIME              1005c630 f     libpng:pngget.obj
 0001:0005b660       _png_get_tRNS              1005c660 f     libpng:pngget.obj
 0001:0005b6e0       _png_get_rgb_to_gray_status 1005c6e0 f     libpng:pngget.obj
 0001:0005b6f0       _png_set_crc_action        1005c6f0 f     libpng:pngrtran.obj
 0001:0005b7b0       _png_set_background        1005c7b0 f     libpng:pngrtran.obj
 0001:0005b850       _png_set_strip_16          1005c850 f     libpng:pngrtran.obj
 0001:0005b860       _png_set_strip_alpha       1005c860 f     libpng:pngrtran.obj
 0001:0005b870       _png_set_dither            1005c870 f     libpng:pngrtran.obj
 0001:0005c030       _png_set_gamma             1005d030 f     libpng:pngrtran.obj
 0001:0005c070       _png_set_expand            1005d070 f     libpng:pngrtran.obj
 0001:0005c080       _png_set_palette_to_rgb    1005d080 f     libpng:pngrtran.obj
 0001:0005c090       _png_set_gray_1_2_4_to_8   1005d090 f     libpng:pngrtran.obj
 0001:0005c0a0       _png_set_tRNS_to_alpha     1005d0a0 f     libpng:pngrtran.obj
 0001:0005c0b0       _png_set_gray_to_rgb       1005d0b0 f     libpng:pngrtran.obj
 0001:0005c0c0       _png_set_rgb_to_gray       1005d0c0 f     libpng:pngrtran.obj
 0001:0005c1d0       _png_set_read_user_transform_fn 1005d1d0 f     libpng:pngrtran.obj
 0001:0005c1f0       _png_read_transform_info   1005d1f0 f     libpng:pngrtran.obj
 0001:0005c360       _png_do_unpack             1005d360 f     libpng:pngrtran.obj
 0001:0005c4a0       _png_do_unshift            1005d4a0 f     libpng:pngrtran.obj
 0001:0005c680       _png_do_chop               1005d680 f     libpng:pngrtran.obj
 0001:0005c6d0       _png_do_read_swap_alpha    1005d6d0 f     libpng:pngrtran.obj
 0001:0005c850       _png_do_read_invert_alpha  1005d850 f     libpng:pngrtran.obj
 0001:0005c9c0       _png_do_read_filler        1005d9c0 f     libpng:pngrtran.obj
 0001:0005cce0       _png_do_gray_to_rgb        1005dce0 f     libpng:pngrtran.obj
 0001:0005ce90       _png_do_rgb_to_gray        1005de90 f     libpng:pngrtran.obj
 0001:0005d560       _png_build_grayscale_palette 1005e560 f     libpng:pngrtran.obj
 0001:0005d600       _png_do_background         1005e600 f     libpng:pngrtran.obj
 0001:0005e5e0       _png_do_gamma              1005f5e0 f     libpng:pngrtran.obj
 0001:0005e9a0       _png_do_expand_palette     1005f9a0 f     libpng:pngrtran.obj
 0001:0005ebf0       _png_do_expand             1005fbf0 f     libpng:pngrtran.obj
 0001:0005efe0       _png_do_dither             1005ffe0 f     libpng:pngrtran.obj
 0001:0005f130       _png_build_gamma_table     10060130 f     libpng:pngrtran.obj
 0001:0005f850       _png_init_read_transformations 10060850 f     libpng:pngrtran.obj
 0001:000603a0       _png_do_read_transformations 100613a0 f     libpng:pngrtran.obj
 0001:00060830       _png_get_header_version    10061830 f     libpng:png.obj
 0001:00060840       _png_set_sig_bytes         10061840 f     libpng:png.obj
 0001:00060870       _png_sig_cmp               10061870 f     libpng:png.obj
 0001:00060940       _png_check_sig             10061940 f     libpng:png.obj
 0001:00060960       _png_zalloc                10061960 f     libpng:png.obj
 0001:000609c0       _png_zfree                 100619c0 f     libpng:png.obj
 0001:000609d0       _png_reset_crc             100619d0 f     libpng:png.obj
 0001:000609f0       _png_calculate_crc         100619f0 f     libpng:png.obj
 0001:00060a40       _png_info_init             10061a40 f     libpng:png.obj
 0001:00060a60       _png_info_destroy          10061a60 f     libpng:png.obj
 0001:00060b30       _png_get_io_ptr            10061b30 f     libpng:png.obj
 0001:00060b40       _png_init_io               10061b40 f     libpng:png.obj
 0001:00060b50       _png_convert_to_rfc1123    10061b50 f     libpng:png.obj
 0001:00060bf0       _png_get_copyright         10061bf0 f     libpng:png.obj
 0001:00060c00       _png_check_version         10061c00 f     libpng:png.obj
 0001:00060c10       _png_create_info_struct    10061c10 f     libpng:png.obj
 0001:00060c40       _png_destroy_info_struct   10061c40 f     libpng:png.obj
 0001:00060c70       _png_read_data             10061c70 f     libpng:pngrio.obj
 0001:00060d40       _png_set_read_fn           10061d40 f     libpng:pngrio.obj
 0001:00060dc0       _png_create_struct         10061dc0 f     libpng:pngmem.obj
 0001:00060e10       _png_destroy_struct        10061e10 f     libpng:pngmem.obj
 0001:00060e30       _png_malloc                10061e30 f     libpng:pngmem.obj
 0001:00060e70       _png_free                  10061e70 f     libpng:pngmem.obj
 0001:00060e90       _png_memcpy_check          10061e90 f     libpng:pngmem.obj
 0001:00060eb0       _png_memset_check          10061eb0 f     libpng:pngmem.obj
 0001:00060fc0       _png_set_error_fn          10061fc0 f     libpng:pngerror.obj
 0001:00060fe0       _png_get_error_ptr         10061fe0 f     libpng:pngerror.obj
 0001:00060ff0       _png_error                 10061ff0 f     libpng:pngerror.obj
 0001:00061030       _png_warning               10062030 f     libpng:pngerror.obj
 0001:00061060       _png_chunk_error           10062060 f     libpng:pngerror.obj
 0001:00061090       _png_chunk_warning         10062090 f     libpng:pngerror.obj
 0001:00061100       _png_get_uint_32           10062100 f     libpng:pngrutil.obj
 0001:00061130       _png_get_int_32            10062130 f     libpng:pngrutil.obj
 0001:00061160       _png_get_uint_16           10062160 f     libpng:pngrutil.obj
 0001:00061180       _png_crc_read              10062180 f     libpng:pngrutil.obj
 0001:000611b0       _png_crc_error             100621b0 f     libpng:pngrutil.obj
 0001:00061230       _png_check_chunk_name      10062230 f     libpng:pngrutil.obj
 0001:00061290       _png_combine_row           10062290 f     libpng:pngrutil.obj
 0001:00061570       _png_do_read_interlace     10062570 f     libpng:pngrutil.obj
 0001:00061990       _png_read_filter_row       10062990 f     libpng:pngrutil.obj
 0001:00061b90       _png_read_start_row        10062b90 f     libpng:pngrutil.obj
 0001:00061de0       _png_crc_finish            10062de0 f     libpng:pngrutil.obj
 0001:00061eb0       _png_handle_IHDR           10062eb0 f     libpng:pngrutil.obj
 0001:00062150       _png_handle_PLTE           10063150 f     libpng:pngrutil.obj
 0001:000622c0       _png_handle_IEND           100632c0 f     libpng:pngrutil.obj
 0001:00062310       _png_handle_gAMA           10063310 f     libpng:pngrutil.obj
 0001:000624b0       _png_handle_sBIT           100634b0 f     libpng:pngrutil.obj
 0001:00062620       _png_handle_cHRM           10063620 f     libpng:pngrutil.obj
 0001:00062c00       _png_handle_sRGB           10063c00 f     libpng:pngrutil.obj
 0001:00062e10       _png_handle_tRNS           10063e10 f     libpng:pngrutil.obj
 0001:00063060       _png_handle_bKGD           10064060 f     libpng:pngrutil.obj
 0001:000632b0       _png_handle_hIST           100642b0 f     libpng:pngrutil.obj
 0001:00063400       _png_handle_pHYs           10064400 f     libpng:pngrutil.obj
 0001:00063560       _png_handle_oFFs           10064560 f     libpng:pngrutil.obj
 0001:000636c0       _png_handle_pCAL           100646c0 f     libpng:pngrutil.obj
 0001:00063940       _png_handle_tIME           10064940 f     libpng:pngrutil.obj
 0001:00063a70       _png_handle_tEXt           10064a70 f     libpng:pngrutil.obj
 0001:00063b30       _png_handle_zTXt           10064b30 f     libpng:pngrutil.obj
 0001:00063ea0       _png_handle_unknown        10064ea0 f     libpng:pngrutil.obj
 0001:00063ef0       _png_read_finish_row       10064ef0 f     libpng:pngrutil.obj
 0001:00064240       _png_set_bgr               10065240 f     libpng:pngtrans.obj
 0001:00064250       _png_set_swap              10065250 f     libpng:pngtrans.obj
 0001:00064270       _png_set_packing           10065270 f     libpng:pngtrans.obj
 0001:00064290       _png_set_packswap          10065290 f     libpng:pngtrans.obj
 0001:000642b0       _png_set_shift             100652b0 f     libpng:pngtrans.obj
 0001:000642d0       _png_set_interlace_handling 100652d0 f     libpng:pngtrans.obj
 0001:000642f0       _png_set_filler            100652f0 f     libpng:pngtrans.obj
 0001:00064350       _png_set_swap_alpha        10065350 f     libpng:pngtrans.obj
 0001:00064360       _png_set_invert_alpha      10065360 f     libpng:pngtrans.obj
 0001:00064370       _png_set_invert_mono       10065370 f     libpng:pngtrans.obj
 0001:00064380       _png_do_invert             10065380 f     libpng:pngtrans.obj
 0001:000643b0       _png_do_swap               100653b0 f     libpng:pngtrans.obj
 0001:000643f0       _png_do_packswap           100653f0 f     libpng:pngtrans.obj
 0001:00064450       _png_do_strip_filler       10065450 f     libpng:pngtrans.obj
 0001:000646d0       _png_do_bgr                100656d0 f     libpng:pngtrans.obj
 0001:000647c0       _png_set_user_transform_info 100657c0 f     libpng:pngtrans.obj
 0001:000647e0       _png_get_user_transform_ptr 100657e0 f     libpng:pngtrans.obj
 0001:000647f0       _png_set_bKGD              100657f0 f     libpng:pngset.obj
 0001:00064820       _png_set_cHRM              10065820 f     libpng:pngset.obj
 0001:00064890       _png_set_gAMA              10065890 f     libpng:pngset.obj
 0001:000648b0       _png_set_hIST              100658b0 f     libpng:pngset.obj
 0001:000648d0       _png_set_IHDR              100658d0 f     libpng:pngset.obj
 0001:00064980       _png_set_oFFs              10065980 f     libpng:pngset.obj
 0001:000649b0       _png_set_pCAL              100659b0 f     libpng:pngset.obj
 0001:00064ae0       _png_set_pHYs              10065ae0 f     libpng:pngset.obj
 0001:00064b10       _png_set_PLTE              10065b10 f     libpng:pngset.obj
 0001:00064b40       _png_set_sBIT              10065b40 f     libpng:pngset.obj
 0001:00064b70       _png_set_sRGB              10065b70 f     libpng:pngset.obj
 0001:00064b90       _png_set_sRGB_gAMA_and_cHRM 10065b90 f     libpng:pngset.obj
 0001:00064c20       _png_set_text              10065c20 f     libpng:pngset.obj
 0001:00064d10       _png_set_tIME              10065d10 f     libpng:pngset.obj
 0001:00064d40       _png_set_tRNS              10065d40 f     libpng:pngset.obj
 0001:00064da0       _png_permit_empty_plte     10065da0 f     libpng:pngset.obj
 0001:00064dc0       _get_crc_table             10065dc0 f     zlib:crc32.obj
 0001:00064dd0       _crc32                     10065dd0 f     zlib:crc32.obj
 0001:00064f04       _timeGetTime@0             10065f04 f     winmm:WINMM.dll
 0001:00064f0a       _DirectDrawCreate@12       10065f0a f     ddraw:DDRAW.dll
 0001:00064f10       _wglDeleteContext@4        10065f10 f     opengl32:OPENGL32.dll
 0001:00064f16       _wglMakeCurrent@8          10065f16 f     opengl32:OPENGL32.dll
 0001:00064f1c       _glTexImage2D@36           10065f1c f     opengl32:OPENGL32.dll
 0001:00064f22       _glViewport@16             10065f22 f     opengl32:OPENGL32.dll
 0001:00064f28       _wglCreateContext@4        10065f28 f     opengl32:OPENGL32.dll
 0001:00064f2e       _Direct3DCreate9@4         10065f2e f     d3d9:d3d9.dll
 0001:00064f34       _ICClose@4                 10065f34 f     Vfw32:MSVFW32.dll
 0001:00064f3a       _ICDecompress              10065f3a f     Vfw32:MSVFW32.dll
 0001:00064f40       _ICSendMessage@16          10065f40 f     Vfw32:MSVFW32.dll
 0001:00064f46       _ICLocate@20               10065f46 f     Vfw32:MSVFW32.dll
 0001:00064f4c       _acmStreamClose@8          10065f4c f     msacm32:MSACM32.dll
 0001:00064f52       _acmStreamConvert@12       10065f52 f     msacm32:MSACM32.dll
 0001:00064f58       _acmStreamPrepareHeader@12 10065f58 f     msacm32:MSACM32.dll
 0001:00064f5e       _acmStreamSize@16          10065f5e f     msacm32:MSACM32.dll
 0001:00064f64       _acmStreamOpen@32          10065f64 f     msacm32:MSACM32.dll
 0001:00064f6a       _acmFormatSuggest@20       10065f6a f     msacm32:MSACM32.dll
 0001:00064f70       _recv@16                   10065f70 f     ws2_32:WS2_32.dll
 0001:00064f76       _closesocket@4             10065f76 f     ws2_32:WS2_32.dll
 0001:00064f7c       _connect@12                10065f7c f     ws2_32:WS2_32.dll
 0001:00064f82       _socket@12                 10065f82 f     ws2_32:WS2_32.dll
 0001:00064f88       _htons@4                   10065f88 f     ws2_32:WS2_32.dll
 0001:00064f8e       _inet_addr@4               10065f8e f     ws2_32:WS2_32.dll
 0001:00064f94       _send@16                   10065f94 f     ws2_32:WS2_32.dll
 0001:00064f9a       _gethostbyname@4           10065f9a f     ws2_32:WS2_32.dll
 0001:00064fa0       _WSAStartup@8              10065fa0 f     ws2_32:WS2_32.dll
 0001:00064fa6       _WSACleanup@0              10065fa6 f     ws2_32:WS2_32.dll
 0001:00064fac       _DebugBreak@0              10065fac f     kernel32:KERNEL32.dll
 0001:00064fb2       _OutputDebugStringA@4      10065fb2 f     kernel32:KERNEL32.dll
 0001:00064fb8       _WinExec@8                 10065fb8 f     kernel32:KERNEL32.dll
 0001:00064fbe       _GetTickCount@0            10065fbe f     kernel32:KERNEL32.dll
 0001:00064fc4       _GlobalUnlock@4            10065fc4 f     kernel32:KERNEL32.dll
 0001:00064fca       _GlobalLock@4              10065fca f     kernel32:KERNEL32.dll
 0001:00064fd0       _GlobalAlloc@8             10065fd0 f     kernel32:KERNEL32.dll
 0001:00064fd6       _GetModuleHandleA@4        10065fd6 f     kernel32:KERNEL32.dll
 0001:00064fdc       _GetFileAttributesA@4      10065fdc f     kernel32:KERNEL32.dll
 0001:00064fe2       _CreateFileA@28            10065fe2 f     kernel32:KERNEL32.dll
 0001:00064fe8       _CloseHandle@4             10065fe8 f     kernel32:KERNEL32.dll
 0001:00064fee       _ReadFile@20               10065fee f     kernel32:KERNEL32.dll
 0001:00064ff4       _WriteFile@20              10065ff4 f     kernel32:KERNEL32.dll
 0001:00064ffa       _SetFilePointer@16         10065ffa f     kernel32:KERNEL32.dll
 0001:00065000       _GetFileSizeEx@8           10066000 f     kernel32:KERNEL32.dll
 0001:00065006       _GetCurrentThreadId@0      10066006 f     kernel32:KERNEL32.dll
 0001:0006500c       _CreateProcessA@40         1006600c f     kernel32:KERNEL32.dll
 0001:00065012       _GetProcAddress@8          10066012 f     kernel32:KERNEL32.dll
 0001:00065018       _LoadLibraryA@4            10066018 f     kernel32:KERNEL32.dll
 0001:0006501e       _GetSystemInfo@4           1006601e f     kernel32:KERNEL32.dll
 0001:00065024       _MultiByteToWideChar@24    10066024 f     kernel32:KERNEL32.dll
 0001:0006502a       _CreateNamedPipeA@32       1006602a f     kernel32:KERNEL32.dll
 0001:00065030       _GetLastError@0            10066030 f     kernel32:KERNEL32.dll
 0001:00065036       _ConnectNamedPipe@8        10066036 f     kernel32:KERNEL32.dll
 0001:0006503c       _FlushFileBuffers@4        1006603c f     kernel32:KERNEL32.dll
 0001:00065042       _PeekNamedPipe@24          10066042 f     kernel32:KERNEL32.dll
 0001:00065048       _DisconnectNamedPipe@4     10066048 f     kernel32:KERNEL32.dll
 0001:0006504e       _FindResourceA@12          1006604e f     kernel32:KERNEL32.dll
 0001:00065054       _SizeofResource@8          10066054 f     kernel32:KERNEL32.dll
 0001:0006505a       _LockResource@4            1006605a f     kernel32:KERNEL32.dll
 0001:00065060       _LoadResource@8            10066060 f     kernel32:KERNEL32.dll
 0001:00065066       _InitializeCriticalSection@4 10066066 f     kernel32:KERNEL32.dll
 0001:0006506c       _DeleteCriticalSection@4   1006606c f     kernel32:KERNEL32.dll
 0001:00065072       _TryEnterCriticalSection@4 10066072 f     kernel32:KERNEL32.dll
 0001:00065078       _EnterCriticalSection@4    10066078 f     kernel32:KERNEL32.dll
 0001:0006507e       _LeaveCriticalSection@4    1006607e f     kernel32:KERNEL32.dll
 0001:00065084       _SetCommState@8            10066084 f     kernel32:KERNEL32.dll
 0001:0006508a       _GetCommState@8            1006608a f     kernel32:KERNEL32.dll
 0001:00065090       _SetCommTimeouts@8         10066090 f     kernel32:KERNEL32.dll
 0001:00065096       _GetCommTimeouts@8         10066096 f     kernel32:KERNEL32.dll
 0001:0006509c       _CreateThread@24           1006609c f     kernel32:KERNEL32.dll
 0001:000650a2       _TerminateThread@8         100660a2 f     kernel32:KERNEL32.dll
 0001:000650a8       _Sleep@4                   100660a8 f     kernel32:KERNEL32.dll
 0001:000650ae       _SetThreadPriority@8       100660ae f     kernel32:KERNEL32.dll
 0001:000650b4       _SetPriorityClass@8        100660b4 f     kernel32:KERNEL32.dll
 0001:000650ba       _GetCurrentProcess@0       100660ba f     kernel32:KERNEL32.dll
 0001:000650c0       _GetPriorityClass@4        100660c0 f     kernel32:KERNEL32.dll
 0001:000650c6       _GetCurrentThread@0        100660c6 f     kernel32:KERNEL32.dll
 0001:000650cc       _GetThreadTimes@20         100660cc f     kernel32:KERNEL32.dll
 0001:000650d2       _QueryPerformanceCounter@4 100660d2 f     kernel32:KERNEL32.dll
 0001:000650d8       _QueryPerformanceFrequency@4 100660d8 f     kernel32:KERNEL32.dll
 0001:000650de       _InterlockedIncrement@4    100660de f     kernel32:KERNEL32.dll
 0001:000650e4       _InterlockedDecrement@4    100660e4 f     kernel32:KERNEL32.dll
 0001:000650ea       _GlobalFree@4              100660ea f     kernel32:KERNEL32.dll
 0001:000650f0       _GlobalSize@4              100660f0 f     kernel32:KERNEL32.dll
 0001:000650f6       _lstrcpyA@8                100660f6 f     kernel32:KERNEL32.dll
 0001:000650fc       _lstrlenA@4                100660fc f     kernel32:KERNEL32.dll
 0001:00065102       _wvsprintfA@12             10066102 f     user32:USER32.dll
 0001:00065108       _ReleaseDC@8               10066108 f     user32:USER32.dll
 0001:0006510e       _GetDC@4                   1006610e f     user32:USER32.dll
 0001:00065114       _SetWindowTextA@8          10066114 f     user32:USER32.dll
 0001:0006511a       _GetDlgItem@8              1006611a f     user32:USER32.dll
 0001:00065120       _EndDialog@8               10066120 f     user32:USER32.dll
 0001:00065126       _CloseClipboard@0          10066126 f     user32:USER32.dll
 0001:0006512c       _GetClipboardData@4        1006612c f     user32:USER32.dll
 0001:00065132       _OpenClipboard@4           10066132 f     user32:USER32.dll
 0001:00065138       _SetClipboardData@8        10066138 f     user32:USER32.dll
 0001:0006513e       _EmptyClipboard@0          1006613e f     user32:USER32.dll
 0001:00065144       _GetSystemMetrics@4        10066144 f     user32:USER32.dll
 0001:0006514a       _GetMonitorInfoA@8         1006614a f     user32:USER32.dll
 0001:00065150       _GetClientRect@8           10066150 f     user32:USER32.dll
 0001:00065156       _PostQuitMessage@4         10066156 f     user32:USER32.dll
 0001:0006515c       _GetDesktopWindow@0        1006615c f     user32:USER32.dll
 0001:00065162       _MessageBoxA@16            10066162 f     user32:USER32.dll
 0001:00065168       _GetKeyboardState@4        10066168 f     user32:USER32.dll
 0001:0006516e       _UnregisterClassA@8        1006616e f     user32:USER32.dll
 0001:00065174       _DestroyCursor@4           10066174 f     user32:USER32.dll
 0001:0006517a       _PostThreadMessageA@16     1006617a f     user32:USER32.dll
 0001:00065180       _ShowWindow@8              10066180 f     user32:USER32.dll
 0001:00065186       _GetWindowPlacement@8      10066186 f     user32:USER32.dll
 0001:0006518c       _SetWindowPos@28           1006618c f     user32:USER32.dll
 0001:00065192       _ReleaseCapture@0          10066192 f     user32:USER32.dll
 0001:00065198       _SetCapture@4              10066198 f     user32:USER32.dll
 0001:0006519e       _SetFocus@4                1006619e f     user32:USER32.dll
 0001:000651a4       _UpdateWindow@4            100661a4 f     user32:USER32.dll
 0001:000651aa       _InvalidateRect@12         100661aa f     user32:USER32.dll
 0001:000651b0       _DefWindowProcA@16         100661b0 f     user32:USER32.dll
 0001:000651b6       _GetKeyState@4             100661b6 f     user32:USER32.dll
 0001:000651bc       _EndPaint@8                100661bc f     user32:USER32.dll
 0001:000651c2       _BeginPaint@8              100661c2 f     user32:USER32.dll
 0001:000651c8       _CreateIconIndirect@4      100661c8 f     user32:USER32.dll
 0001:000651ce       _SetCursor@4               100661ce f     user32:USER32.dll
 0001:000651d4       _LoadCursorA@8             100661d4 f     user32:USER32.dll
 0001:000651da       _PostMessageA@16           100661da f     user32:USER32.dll
 0001:000651e0       _SetWindowLongA@12         100661e0 f     user32:USER32.dll
 0001:000651e6       _KillTimer@8               100661e6 f     user32:USER32.dll
 0001:000651ec       _DispatchMessageA@4        100661ec f     user32:USER32.dll
 0001:000651f2       _TranslateMessage@4        100661f2 f     user32:USER32.dll
 0001:000651f8       _PeekMessageA@20           100661f8 f     user32:USER32.dll
 0001:000651fe       _DestroyWindow@4           100661fe f     user32:USER32.dll
 0001:00065204       _SetTimer@16               10066204 f     user32:USER32.dll
 0001:0006520a       _GetWindowLongA@8          1006620a f     user32:USER32.dll
 0001:00065210       _RegisterClassA@4          10066210 f     user32:USER32.dll
 0001:00065216       _CreateWindowExA@48        10066216 f     user32:USER32.dll
 0001:0006521c       _GetSystemPaletteEntries@16 1006621c f     gdi32:GDI32.dll
 0001:00065222       _DeleteObject@4            10066222 f     gdi32:GDI32.dll
 0001:00065228       _RealizePalette@4          10066228 f     gdi32:GDI32.dll
 0001:0006522e       _SelectPalette@12          1006622e f     gdi32:GDI32.dll
 0001:00065234       _CreatePalette@4           10066234 f     gdi32:GDI32.dll
 0001:0006523a       _GetDeviceCaps@8           1006623a f     gdi32:GDI32.dll
 0001:00065240       _GdiFlush@0                10066240 f     gdi32:GDI32.dll
 0001:00065246       _SetDIBitsToDevice@48      10066246 f     gdi32:GDI32.dll
 0001:0006524c       _StretchDIBits@52          1006624c f     gdi32:GDI32.dll
 0001:00065252       _SetStretchBltMode@8       10066252 f     gdi32:GDI32.dll
 0001:00065258       _DeleteDC@4                10066258 f     gdi32:GDI32.dll
 0001:0006525e       _GetDIBits@28              1006625e f     gdi32:GDI32.dll
 0001:00065264       _BitBlt@36                 10066264 f     gdi32:GDI32.dll
 0001:0006526a       _SelectObject@8            1006626a f     gdi32:GDI32.dll
 0001:00065270       _CreateCompatibleBitmap@12 10066270 f     gdi32:GDI32.dll
 0001:00065276       _CreateCompatibleDC@4      10066276 f     gdi32:GDI32.dll
 0001:0006527c       _GetCurrentObject@8        1006627c f     gdi32:GDI32.dll
 0001:00065282       _SetPixelFormat@12         10066282 f     gdi32:GDI32.dll
 0001:00065288       _ChoosePixelFormat@8       10066288 f     gdi32:GDI32.dll
 0001:0006528e       _CreateDIBSection@24       1006628e f     gdi32:GDI32.dll
 0001:00065294       _SetPixel@16               10066294 f     gdi32:GDI32.dll
 0001:0006529a       _CreateBitmap@20           1006629a f     gdi32:GDI32.dll
 0001:000652a0       _GetSaveFileNameA@4        100662a0 f     comdlg32:comdlg32.dll
 0001:000652a6       _GetOpenFileNameA@4        100662a6 f     comdlg32:comdlg32.dll
 0001:000652ac       _RegCloseKey@4             100662ac f     advapi32:ADVAPI32.dll
 0001:000652b2       _RegQueryValueA@16         100662b2 f     advapi32:ADVAPI32.dll
 0001:000652b8       _RegOpenKeyA@12            100662b8 f     advapi32:ADVAPI32.dll
 0001:000652be       _RegCreateKeyA@12          100662be f     advapi32:ADVAPI32.dll
 0001:000652c4       _RegSetValueExA@24         100662c4 f     advapi32:ADVAPI32.dll
 0001:000652ca       _RegQueryValueExA@24       100662ca f     advapi32:ADVAPI32.dll
 0001:000652d0       _RegEnumKeyA@16            100662d0 f     advapi32:ADVAPI32.dll
 0001:000652d6       _SHGetFolderPathA@20       100662d6 f     shell32:SHELL32.dll
 0001:000652dc       _SHBrowseForFolderA@4      100662dc f     shell32:SHELL32.dll
 0001:000652e2       _DragQueryFileA@16         100662e2 f     shell32:SHELL32.dll
 0001:000652e8       _SHCreateStdEnumFmtEtc@12  100662e8 f     shell32:SHELL32.dll
 0001:000652ee       _CoTaskMemFree@4           100662ee f     ole32:ole32.dll
 0001:000652f4       _CoCreateInstance@20       100662f4 f     ole32:ole32.dll
 0001:000652fa       _CoInitialize@4            100662fa f     ole32:ole32.dll
 0001:00065300       _CoUninitialize@0          10066300 f     ole32:ole32.dll
 0001:00065306       _OleUninitialize@0         10066306 f     ole32:ole32.dll
 0001:0006530c       _ReleaseStgMedium@4        1006630c f     ole32:ole32.dll
 0001:00065312       _RevokeDragDrop@4          10066312 f     ole32:ole32.dll
 0001:00065318       _RegisterDragDrop@8        10066318 f     ole32:ole32.dll
 0001:0006531e       _OleInitialize@4           1006631e f     ole32:ole32.dll
 0001:00065324       _DoDragDrop@16             10066324 f     ole32:ole32.dll
 0001:0006532a       _memcpy                    1006632a f     MSVCRT:MSVCR80.dll
 0001:00065330       _tolower                   10066330 f     MSVCRT:MSVCR80.dll
 0001:00065336       _isupper                   10066336 f     MSVCRT:MSVCR80.dll
 0001:0006533c       ___iob_func                1006633c f     MSVCRT:MSVCR80.dll
 0001:00065342       _ungetc                    10066342 f     MSVCRT:MSVCR80.dll
 0001:00065348       _getc                      10066348 f     MSVCRT:MSVCR80.dll
 0001:0006534e       _exit                      1006634e f     MSVCRT:MSVCR80.dll
 0001:00065354       _fprintf                   10066354 f     MSVCRT:MSVCR80.dll
 0001:0006535a       _sscanf                    1006635a f     MSVCRT:MSVCR80.dll
 0001:00065360       _fclose                    10066360 f     MSVCRT:MSVCR80.dll
 0001:00065366       _fopen                     10066366 f     MSVCRT:MSVCR80.dll
 0001:0006536c       @__security_check_cookie@4 1006636c f     MSVCRT:secchk.obj
 0001:00065380       _memset                    10066380 f     MSVCRT:MSVCR80.dll
 0001:00065390       __ftol2_sse                10066390 f     MSVCRT:ftol2.obj
 0001:00065399       __ftol2_pentium4           10066399 f     MSVCRT:ftol2.obj
 0001:000653ac       __ftol2_sse_excpt          100663ac f     MSVCRT:ftol2.obj
 0001:000653c6       __ftol2                    100663c6 f     MSVCRT:ftol2.obj
 0001:0006543c       _fwrite                    1006643c f     MSVCRT:MSVCR80.dll
 0001:00065442       _ferror                    10066442 f     MSVCRT:MSVCR80.dll
 0001:00065448       _fflush                    10066448 f     MSVCRT:MSVCR80.dll
 0001:0006544e       _fread                     1006644e f     MSVCRT:MSVCR80.dll
 0001:00065454       _sprintf                   10066454 f     MSVCRT:MSVCR80.dll
 0001:0006545a       _malloc                    1006645a f     MSVCRT:MSVCR80.dll
 0001:00065460       _free                      10066460 f     MSVCRT:MSVCR80.dll
 0001:00065466       _isdigit                   10066466 f     MSVCRT:MSVCR80.dll
 0001:0006546c       _isspace                   1006646c f     MSVCRT:MSVCR80.dll
 0001:00065472       ??0type_info@@AAE@ABV0@@Z  10066472 f     MSVCRT:ti_inst.obj
 0001:0006547d       ??_Etype_info@@UAEPAXI@Z   1006647d f i   MSVCRT:ti_inst.obj
 0001:000654c6       ??4type_info@@AAEAAV0@ABV0@@Z 100664c6 f     MSVCRT:ti_inst.obj
 0001:000654cb       __onexit                   100664cb f     MSVCRT:atonexit.obj
 0001:000654f1       _atexit                    100664f1 f     MSVCRT:atonexit.obj
 0001:00065504       ___CxxFrameHandler         10066504 f     MSVCRT:MSVCR80.dll
 0001:00065510       __allshr                   10066510 f     MSVCRT:llshr.obj
 0001:00065540       __alldiv                   10066540 f     MSVCRT:lldiv.obj
 0001:000655f0       __allmul                   100665f0 f     MSVCRT:llmul.obj
 0001:00065624       _memmove                   10066624 f     MSVCRT:MSVCR80.dll
 0001:00065630       __allshl                   10066630 f     MSVCRT:llshl.obj
 0001:00065650       __alloca_probe             10066650       MSVCRT:chkstk.obj
 0001:00065650       __chkstk                   10066650 f     MSVCRT:chkstk.obj
 0001:0006567c       _frexp                     1006667c f     MSVCRT:MSVCR80.dll
 0001:00065682       _printf                    10066682 f     MSVCRT:MSVCR80.dll
 0001:00065688       _strchr                    10066688 f     MSVCRT:MSVCR80.dll
 0001:0006568e       __purecall                 1006668e f     MSVCRT:MSVCR80.dll
 0001:00065694       _strstr                    10066694 f     MSVCRT:MSVCR80.dll
 0001:0006569a       __CxxThrowException@8      1006669a f     MSVCRT:MSVCR80.dll
 0001:000656b2       ?__ArrayUnwind@@YGXPAXIHP6EX0@Z@Z 100666b2 f     MSVCRT:ehvecdtr.obj
 0001:0006570d       ??_M@YGXPAXIHP6EX0@Z@Z     1006670d f     MSVCRT:ehvecdtr.obj
 0001:00065770       __allrem                   10066770 f     MSVCRT:llrem.obj
 0001:00065822       ??_L@YGXPAXIHP6EX0@Z1@Z    10066822 f     MSVCRT:ehvecctr.obj
 0001:00065884       __CIcos                    10066884 f     MSVCRT:MSVCR80.dll
 0001:0006588a       __CIsin                    1006688a f     MSVCRT:MSVCR80.dll
 0001:00065890       __CIsqrt                   10066890 f     MSVCRT:MSVCR80.dll
 0001:00065896       __setjmp3                  10066896 f     MSVCRT:MSVCR80.dll
 0001:0006589c       ___CxxLongjmpUnwind@4      1006689c f     MSVCRT:MSVCR80.dll
 0001:000658a2       _strncpy                   100668a2 f     MSVCRT:MSVCR80.dll
 0001:000658a8       _strncmp                   100668a8 f     MSVCRT:MSVCR80.dll
 0001:000658ae       __splitpath                100668ae f     MSVCRT:MSVCR80.dll
 0001:000658b4       _atoi                      100668b4 f     MSVCRT:MSVCR80.dll
 0001:000658fc       __CRT_INIT@12              100668fc f     MSVCRT:crtdll.obj
 0001:000659de       __DllMainCRTStartup@12     100669de f     MSVCRT:crtdll.obj
 0001:00065ae0       __CIpow                    10066ae0 f     MSVCRT:MSVCR80.dll
 0001:00065ae6       _longjmp                   10066ae6 f     MSVCRT:MSVCR80.dll
 0001:00065aec       ___security_init_cookie    10066aec f     MSVCRT:seccinit.obj
 0001:00065b56       ___security_error_handler  10066b56 f     MSVCRT:MSVCR80.dll
 0001:00065ba9       __get_sse2_info            10066ba9 f     MSVCRT:cpu_disp.obj
 0001:00065c54       ___sse2_available_init     10066c54 f     MSVCRT:cpu_disp.obj
 0001:00065c64       ??1type_info@@UAE@XZ       10066c64 f     MSVCRT:MSVCR80.dll
 0001:00065c6a       ___dllonexit               10066c6a f     MSVCRT:MSVCR80.dll
 0001:00065c70       ?terminate@@YAXXZ          10066c70 f     MSVCRT:MSVCR80.dll
 0001:00065c78       __SEH_prolog               10066c78 f     MSVCRT:sehprolg.obj
 0001:00065cb3       __SEH_epilog               10066cb3 f     MSVCRT:sehprolg.obj
 0001:00065cc4       __except_handler3          10066cc4 f     MSVCRT:MSVCR80.dll
 0001:00065cca       ___clean_type_info_names   10066cca f     MSVCRT:tncleanup.obj
 0001:00065d1a       __RTC_Initialize           10066d1a f     MSVCRT:initsect.obj
 0001:00065d3e       __RTC_Terminate            10066d3e f     MSVCRT:initsect.obj
 0001:00065d62       @_malloc_crt@4             10066d62 f     MSVCRT:MSVCR80.dll
 0001:00065d68       __initterm                 10066d68 f     MSVCRT:MSVCR80.dll
 0001:00065d6e       __initterm_e               10066d6e f     MSVCRT:MSVCR80.dll
 0001:00065d74       __amsg_exit                10066d74 f     MSVCRT:MSVCR80.dll
 0001:00065d7a       ___CppXcptFilter           10066d7a f     MSVCRT:MSVCR80.dll
 0001:00065d80       _memcmp                    10066d80 f     MSVCRT:MSVCR80.dll
 0001:00065d86       __unlock                   10066d86 f     MSVCRT:MSVCR80.dll
 0001:00065d8c       __lock                     10066d8c f     MSVCRT:MSVCR80.dll
 0001:00065d92       _GetCurrentProcessId@0     10066d92 f     kernel32:KERNEL32.dll
 0001:00065d98       _GetSystemTimeAsFileTime@4 10066d98 f     kernel32:KERNEL32.dll
 0001:00065d9e       __stricmp                  10066d9e f     MSVCRT:MSVCR80.dll
 0001:00065da4       __strupr                   10066da4 f     MSVCRT:MSVCR80.dll
 0001:00065daa       __strlwr                   10066daa f     MSVCRT:MSVCR80.dll
 0001:00065db0       __strdup                   10066db0 f     MSVCRT:MSVCR80.dll
 0001:00065db6       __lseek                    10066db6 f     MSVCRT:MSVCR80.dll
 0001:00065dbc       __close                    10066dbc f     MSVCRT:MSVCR80.dll
 0001:00065dc2       __read                     10066dc2 f     MSVCRT:MSVCR80.dll
 0001:00065dc8       __open                     10066dc8 f     MSVCRT:MSVCR80.dll
 0002:00000000       __imp__RegCreateKeyA@12    10069000       advapi32:ADVAPI32.dll
 0002:00000004       __imp__RegQueryValueExA@24 10069004       advapi32:ADVAPI32.dll
 0002:00000008       __imp__RegEnumKeyA@16      10069008       advapi32:ADVAPI32.dll
 0002:0000000c       __imp__RegOpenKeyA@12      1006900c       advapi32:ADVAPI32.dll
 0002:00000010       __imp__RegQueryValueA@16   10069010       advapi32:ADVAPI32.dll
 0002:00000014       __imp__RegCloseKey@4       10069014       advapi32:ADVAPI32.dll
 0002:00000018       __imp__RegSetValueExA@24   10069018       advapi32:ADVAPI32.dll
 0002:0000001c       \177ADVAPI32_NULL_THUNK_DATA 1006901c       advapi32:ADVAPI32.dll
 0002:00000020       __imp__DirectDrawCreate@12 10069020       ddraw:DDRAW.dll
 0002:00000024       \177DDRAW_NULL_THUNK_DATA  10069024       ddraw:DDRAW.dll
 0002:00000028       __imp__CreateCompatibleBitmap@12 10069028       gdi32:GDI32.dll
 0002:0000002c       __imp__SelectObject@8      1006902c       gdi32:GDI32.dll
 0002:00000030       __imp__BitBlt@36           10069030       gdi32:GDI32.dll
 0002:00000034       __imp__GetDIBits@28        10069034       gdi32:GDI32.dll
 0002:00000038       __imp__DeleteDC@4          10069038       gdi32:GDI32.dll
 0002:0000003c       __imp__SetStretchBltMode@8 1006903c       gdi32:GDI32.dll
 0002:00000040       __imp__SetPixelFormat@12   10069040       gdi32:GDI32.dll
 0002:00000044       __imp__SetDIBitsToDevice@48 10069044       gdi32:GDI32.dll
 0002:00000048       __imp__CreateCompatibleDC@4 10069048       gdi32:GDI32.dll
 0002:0000004c       __imp__GetDeviceCaps@8     1006904c       gdi32:GDI32.dll
 0002:00000050       __imp__CreatePalette@4     10069050       gdi32:GDI32.dll
 0002:00000054       __imp__SelectPalette@12    10069054       gdi32:GDI32.dll
 0002:00000058       __imp__RealizePalette@4    10069058       gdi32:GDI32.dll
 0002:0000005c       __imp__DeleteObject@4      1006905c       gdi32:GDI32.dll
 0002:00000060       __imp__GetSystemPaletteEntries@16 10069060       gdi32:GDI32.dll
 0002:00000064       __imp__ChoosePixelFormat@8 10069064       gdi32:GDI32.dll
 0002:00000068       __imp__CreateDIBSection@24 10069068       gdi32:GDI32.dll
 0002:0000006c       __imp__SetPixel@16         1006906c       gdi32:GDI32.dll
 0002:00000070       __imp__GdiFlush@0          10069070       gdi32:GDI32.dll
 0002:00000074       __imp__GetCurrentObject@8  10069074       gdi32:GDI32.dll
 0002:00000078       __imp__CreateBitmap@20     10069078       gdi32:GDI32.dll
 0002:0000007c       __imp__StretchDIBits@52    1006907c       gdi32:GDI32.dll
 0002:00000080       \177GDI32_NULL_THUNK_DATA  10069080       gdi32:GDI32.dll
 0002:00000084       __imp__GetSystemTimeAsFileTime@4 10069084       kernel32:KERNEL32.dll
 0002:00000088       __imp__GetCurrentProcessId@0 10069088       kernel32:KERNEL32.dll
 0002:0000008c       __imp__DebugBreak@0        1006908c       kernel32:KERNEL32.dll
 0002:00000090       __imp__OutputDebugStringA@4 10069090       kernel32:KERNEL32.dll
 0002:00000094       __imp__WinExec@8           10069094       kernel32:KERNEL32.dll
 0002:00000098       __imp__GetTickCount@0      10069098       kernel32:KERNEL32.dll
 0002:0000009c       __imp__GlobalUnlock@4      1006909c       kernel32:KERNEL32.dll
 0002:000000a0       __imp__GlobalLock@4        100690a0       kernel32:KERNEL32.dll
 0002:000000a4       __imp__GlobalAlloc@8       100690a4       kernel32:KERNEL32.dll
 0002:000000a8       __imp__GetModuleHandleA@4  100690a8       kernel32:KERNEL32.dll
 0002:000000ac       __imp__GetFileAttributesA@4 100690ac       kernel32:KERNEL32.dll
 0002:000000b0       __imp__CreateFileA@28      100690b0       kernel32:KERNEL32.dll
 0002:000000b4       __imp__CloseHandle@4       100690b4       kernel32:KERNEL32.dll
 0002:000000b8       __imp__ReadFile@20         100690b8       kernel32:KERNEL32.dll
 0002:000000bc       __imp__WriteFile@20        100690bc       kernel32:KERNEL32.dll
 0002:000000c0       __imp__SetFilePointer@16   100690c0       kernel32:KERNEL32.dll
 0002:000000c4       __imp__GetFileSizeEx@8     100690c4       kernel32:KERNEL32.dll
 0002:000000c8       __imp__GetCurrentThreadId@0 100690c8       kernel32:KERNEL32.dll
 0002:000000cc       __imp__CreateProcessA@40   100690cc       kernel32:KERNEL32.dll
 0002:000000d0       __imp__GetProcAddress@8    100690d0       kernel32:KERNEL32.dll
 0002:000000d4       __imp__LoadLibraryA@4      100690d4       kernel32:KERNEL32.dll
 0002:000000d8       __imp__GetSystemInfo@4     100690d8       kernel32:KERNEL32.dll
 0002:000000dc       __imp__MultiByteToWideChar@24 100690dc       kernel32:KERNEL32.dll
 0002:000000e0       __imp__CreateNamedPipeA@32 100690e0       kernel32:KERNEL32.dll
 0002:000000e4       __imp__GetLastError@0      100690e4       kernel32:KERNEL32.dll
 0002:000000e8       __imp__ConnectNamedPipe@8  100690e8       kernel32:KERNEL32.dll
 0002:000000ec       __imp__FlushFileBuffers@4  100690ec       kernel32:KERNEL32.dll
 0002:000000f0       __imp__PeekNamedPipe@24    100690f0       kernel32:KERNEL32.dll
 0002:000000f4       __imp__DisconnectNamedPipe@4 100690f4       kernel32:KERNEL32.dll
 0002:000000f8       __imp__FindResourceA@12    100690f8       kernel32:KERNEL32.dll
 0002:000000fc       __imp__SizeofResource@8    100690fc       kernel32:KERNEL32.dll
 0002:00000100       __imp__LockResource@4      10069100       kernel32:KERNEL32.dll
 0002:00000104       __imp__LoadResource@8      10069104       kernel32:KERNEL32.dll
 0002:00000108       __imp__InitializeCriticalSection@4 10069108       kernel32:KERNEL32.dll
 0002:0000010c       __imp__DeleteCriticalSection@4 1006910c       kernel32:KERNEL32.dll
 0002:00000110       __imp__TryEnterCriticalSection@4 10069110       kernel32:KERNEL32.dll
 0002:00000114       __imp__EnterCriticalSection@4 10069114       kernel32:KERNEL32.dll
 0002:00000118       __imp__LeaveCriticalSection@4 10069118       kernel32:KERNEL32.dll
 0002:0000011c       __imp__SetCommState@8      1006911c       kernel32:KERNEL32.dll
 0002:00000120       __imp__GetCommState@8      10069120       kernel32:KERNEL32.dll
 0002:00000124       __imp__SetCommTimeouts@8   10069124       kernel32:KERNEL32.dll
 0002:00000128       __imp__GetCommTimeouts@8   10069128       kernel32:KERNEL32.dll
 0002:0000012c       __imp__CreateThread@24     1006912c       kernel32:KERNEL32.dll
 0002:00000130       __imp__TerminateThread@8   10069130       kernel32:KERNEL32.dll
 0002:00000134       __imp__Sleep@4             10069134       kernel32:KERNEL32.dll
 0002:00000138       __imp__SetThreadPriority@8 10069138       kernel32:KERNEL32.dll
 0002:0000013c       __imp__SetPriorityClass@8  1006913c       kernel32:KERNEL32.dll
 0002:00000140       __imp__GetCurrentProcess@0 10069140       kernel32:KERNEL32.dll
 0002:00000144       __imp__GetPriorityClass@4  10069144       kernel32:KERNEL32.dll
 0002:00000148       __imp__GetCurrentThread@0  10069148       kernel32:KERNEL32.dll
 0002:0000014c       __imp__GetThreadTimes@20   1006914c       kernel32:KERNEL32.dll
 0002:00000150       __imp__QueryPerformanceCounter@4 10069150       kernel32:KERNEL32.dll
 0002:00000154       __imp__QueryPerformanceFrequency@4 10069154       kernel32:KERNEL32.dll
 0002:00000158       __imp__InterlockedIncrement@4 10069158       kernel32:KERNEL32.dll
 0002:0000015c       __imp__InterlockedDecrement@4 1006915c       kernel32:KERNEL32.dll
 0002:00000160       __imp__GlobalFree@4        10069160       kernel32:KERNEL32.dll
 0002:00000164       __imp__GlobalSize@4        10069164       kernel32:KERNEL32.dll
 0002:00000168       __imp__lstrcpyA@8          10069168       kernel32:KERNEL32.dll
 0002:0000016c       __imp__lstrlenA@4          1006916c       kernel32:KERNEL32.dll
 0002:00000170       \177KERNEL32_NULL_THUNK_DATA 10069170       kernel32:KERNEL32.dll
 0002:00000174       __imp__acmStreamClose@8    10069174       msacm32:MSACM32.dll
 0002:00000178       __imp__acmStreamPrepareHeader@12 10069178       msacm32:MSACM32.dll
 0002:0000017c       __imp__acmStreamSize@16    1006917c       msacm32:MSACM32.dll
 0002:00000180       __imp__acmStreamOpen@32    10069180       msacm32:MSACM32.dll
 0002:00000184       __imp__acmFormatSuggest@20 10069184       msacm32:MSACM32.dll
 0002:00000188       __imp__acmStreamConvert@12 10069188       msacm32:MSACM32.dll
 0002:0000018c       \177MSACM32_NULL_THUNK_DATA 1006918c       msacm32:MSACM32.dll
 0002:00000190       __imp__malloc              10069190       MSVCRT:MSVCR80.dll
 0002:00000194       __imp__sprintf             10069194       MSVCRT:MSVCR80.dll
 0002:00000198       __imp__fread               10069198       MSVCRT:MSVCR80.dll
 0002:0000019c       __imp__fflush              1006919c       MSVCRT:MSVCR80.dll
 0002:000001a0       __imp__ferror              100691a0       MSVCRT:MSVCR80.dll
 0002:000001a4       __imp__fwrite              100691a4       MSVCRT:MSVCR80.dll
 0002:000001a8       __imp__memset              100691a8       MSVCRT:MSVCR80.dll
 0002:000001ac       __imp__fopen               100691ac       MSVCRT:MSVCR80.dll
 0002:000001b0       __imp__fclose              100691b0       MSVCRT:MSVCR80.dll
 0002:000001b4       __imp__sscanf              100691b4       MSVCRT:MSVCR80.dll
 0002:000001b8       __imp__fprintf             100691b8       MSVCRT:MSVCR80.dll
 0002:000001bc       __imp__exit                100691bc       MSVCRT:MSVCR80.dll
 0002:000001c0       __imp__getc                100691c0       MSVCRT:MSVCR80.dll
 0002:000001c4       __imp__ungetc              100691c4       MSVCRT:MSVCR80.dll
 0002:000001c8       __imp___splitpath          100691c8       MSVCRT:MSVCR80.dll
 0002:000001cc       __imp____iob_func          100691cc       MSVCRT:MSVCR80.dll
 0002:000001d0       __imp__isupper             100691d0       MSVCRT:MSVCR80.dll
 0002:000001d4       __imp__tolower             100691d4       MSVCRT:MSVCR80.dll
 0002:000001d8       __imp__memcpy              100691d8       MSVCRT:MSVCR80.dll
 0002:000001dc       __imp__atoi                100691dc       MSVCRT:MSVCR80.dll
 0002:000001e0       __imp__free                100691e0       MSVCRT:MSVCR80.dll
 0002:000001e4       __imp__longjmp             100691e4       MSVCRT:MSVCR80.dll
 0002:000001e8       __imp____security_error_handler 100691e8       MSVCRT:MSVCR80.dll
 0002:000001ec       __imp_??1type_info@@UAE@XZ 100691ec       MSVCRT:MSVCR80.dll
 0002:000001f0       __imp____dllonexit         100691f0       MSVCRT:MSVCR80.dll
 0002:000001f4       __imp___onexit             100691f4       MSVCRT:MSVCR80.dll
 0002:000001f8       __imp_?terminate@@YAXXZ    100691f8       MSVCRT:MSVCR80.dll
 0002:000001fc       __imp___except_handler3    100691fc       MSVCRT:MSVCR80.dll
 0002:00000200       __imp_@_malloc_crt@4       10069200       MSVCRT:MSVCR80.dll
 0002:00000204       __imp___initterm           10069204       MSVCRT:MSVCR80.dll
 0002:00000208       __imp____CppXcptFilter     10069208       MSVCRT:MSVCR80.dll
 0002:0000020c       __imp__memcmp              1006920c       MSVCRT:MSVCR80.dll
 0002:00000210       __imp___unlock             10069210       MSVCRT:MSVCR80.dll
 0002:00000214       __imp___lock               10069214       MSVCRT:MSVCR80.dll
 0002:00000218       __imp___stricmp            10069218       MSVCRT:MSVCR80.dll
 0002:00000218       __imp__stricmp             10069218       MSVCRT:MSVCR80.dll
 0002:0000021c       __imp__strupr              1006921c       MSVCRT:MSVCR80.dll
 0002:0000021c       __imp___strupr             1006921c       MSVCRT:MSVCR80.dll
 0002:00000220       __imp___strlwr             10069220       MSVCRT:MSVCR80.dll
 0002:00000220       __imp__strlwr              10069220       MSVCRT:MSVCR80.dll
 0002:00000224       __imp___initterm_e         10069224       MSVCRT:MSVCR80.dll
 0002:00000228       __imp___amsg_exit          10069228       MSVCRT:MSVCR80.dll
 0002:0000022c       __imp___adjust_fdiv        1006922c       MSVCRT:MSVCR80.dll
 0002:00000230       __imp__strdup              10069230       MSVCRT:MSVCR80.dll
 0002:00000230       __imp___strdup             10069230       MSVCRT:MSVCR80.dll
 0002:00000234       __imp__isdigit             10069234       MSVCRT:MSVCR80.dll
 0002:00000238       __imp__isspace             10069238       MSVCRT:MSVCR80.dll
 0002:0000023c       __imp____CxxFrameHandler   1006923c       MSVCRT:MSVCR80.dll
 0002:00000240       __imp__memmove             10069240       MSVCRT:MSVCR80.dll
 0002:00000244       __imp__frexp               10069244       MSVCRT:MSVCR80.dll
 0002:00000248       __imp___CIpow              10069248       MSVCRT:MSVCR80.dll
 0002:0000024c       __imp__printf              1006924c       MSVCRT:MSVCR80.dll
 0002:00000250       __imp__strchr              10069250       MSVCRT:MSVCR80.dll
 0002:00000254       __imp___purecall           10069254       MSVCRT:MSVCR80.dll
 0002:00000258       __imp__strstr              10069258       MSVCRT:MSVCR80.dll
 0002:0000025c       __imp___CxxThrowException@8 1006925c       MSVCRT:MSVCR80.dll
 0002:00000260       __imp___CIcos              10069260       MSVCRT:MSVCR80.dll
 0002:00000264       __imp___lseek              10069264       MSVCRT:MSVCR80.dll
 0002:00000264       __imp__lseek               10069264       MSVCRT:MSVCR80.dll
 0002:00000268       __imp__close               10069268       MSVCRT:MSVCR80.dll
 0002:00000268       __imp___close              10069268       MSVCRT:MSVCR80.dll
 0002:0000026c       __imp___CIsin              1006926c       MSVCRT:MSVCR80.dll
 0002:00000270       __imp___CIsqrt             10069270       MSVCRT:MSVCR80.dll
 0002:00000274       __imp___setjmp3            10069274       MSVCRT:MSVCR80.dll
 0002:00000278       __imp____CxxLongjmpUnwind@4 10069278       MSVCRT:MSVCR80.dll
 0002:0000027c       __imp__strncpy             1006927c       MSVCRT:MSVCR80.dll
 0002:00000280       __imp__strncmp             10069280       MSVCRT:MSVCR80.dll
 0002:00000284       __imp__read                10069284       MSVCRT:MSVCR80.dll
 0002:00000284       __imp___read               10069284       MSVCRT:MSVCR80.dll
 0002:00000288       __imp___open               10069288       MSVCRT:MSVCR80.dll
 0002:00000288       __imp__open                10069288       MSVCRT:MSVCR80.dll
 0002:0000028c       \177MSVCR80_NULL_THUNK_DATA 1006928c       MSVCRT:MSVCR80.dll
 0002:00000290       __imp__ICClose@4           10069290       Vfw32:MSVFW32.dll
 0002:00000294       __imp__ICLocate@20         10069294       Vfw32:MSVFW32.dll
 0002:00000298       __imp__ICSendMessage@16    10069298       Vfw32:MSVFW32.dll
 0002:0000029c       __imp__ICDecompress        1006929c       Vfw32:MSVFW32.dll
 0002:000002a0       \177MSVFW32_NULL_THUNK_DATA 100692a0       Vfw32:MSVFW32.dll
 0002:000002a4       __imp__wglCreateContext@4  100692a4       opengl32:OPENGL32.dll
 0002:000002a8       __imp__glViewport@16       100692a8       opengl32:OPENGL32.dll
 0002:000002ac       __imp__glTexImage2D@36     100692ac       opengl32:OPENGL32.dll
 0002:000002b0       __imp__wglDeleteContext@4  100692b0       opengl32:OPENGL32.dll
 0002:000002b4       __imp__wglMakeCurrent@8    100692b4       opengl32:OPENGL32.dll
 0002:000002b8       \177OPENGL32_NULL_THUNK_DATA 100692b8       opengl32:OPENGL32.dll
 0002:000002bc       __imp__SHBrowseForFolderA@4 100692bc       shell32:SHELL32.dll
 0002:000002c0       __imp__DragQueryFileA@16   100692c0       shell32:SHELL32.dll
 0002:000002c4       __imp__SHCreateStdEnumFmtEtc@12 100692c4       shell32:SHELL32.dll
 0002:000002c8       __imp__SHGetFolderPathA@20 100692c8       shell32:SHELL32.dll
 0002:000002cc       \177SHELL32_NULL_THUNK_DATA 100692cc       shell32:SHELL32.dll
 0002:000002d0       __imp__PostMessageA@16     100692d0       user32:USER32.dll
 0002:000002d4       __imp__LoadCursorA@8       100692d4       user32:USER32.dll
 0002:000002d8       __imp__SetCursor@4         100692d8       user32:USER32.dll
 0002:000002dc       __imp__CreateIconIndirect@4 100692dc       user32:USER32.dll
 0002:000002e0       __imp__BeginPaint@8        100692e0       user32:USER32.dll
 0002:000002e4       __imp__EndPaint@8          100692e4       user32:USER32.dll
 0002:000002e8       __imp__GetKeyState@4       100692e8       user32:USER32.dll
 0002:000002ec       __imp__DefWindowProcA@16   100692ec       user32:USER32.dll
 0002:000002f0       __imp__InvalidateRect@12   100692f0       user32:USER32.dll
 0002:000002f4       __imp__UpdateWindow@4      100692f4       user32:USER32.dll
 0002:000002f8       __imp__SetFocus@4          100692f8       user32:USER32.dll
 0002:000002fc       __imp__SetCapture@4        100692fc       user32:USER32.dll
 0002:00000300       __imp__ReleaseCapture@0    10069300       user32:USER32.dll
 0002:00000304       __imp__SetWindowPos@28     10069304       user32:USER32.dll
 0002:00000308       __imp__GetWindowPlacement@8 10069308       user32:USER32.dll
 0002:0000030c       __imp__SetWindowLongA@12   1006930c       user32:USER32.dll
 0002:00000310       __imp__DestroyCursor@4     10069310       user32:USER32.dll
 0002:00000314       __imp__UnregisterClassA@8  10069314       user32:USER32.dll
 0002:00000318       __imp__GetKeyboardState@4  10069318       user32:USER32.dll
 0002:0000031c       __imp__MessageBoxA@16      1006931c       user32:USER32.dll
 0002:00000320       __imp__GetDesktopWindow@0  10069320       user32:USER32.dll
 0002:00000324       __imp__PostQuitMessage@4   10069324       user32:USER32.dll
 0002:00000328       __imp__GetClientRect@8     10069328       user32:USER32.dll
 0002:0000032c       __imp__GetMonitorInfoA@8   1006932c       user32:USER32.dll
 0002:00000330       __imp__GetSystemMetrics@4  10069330       user32:USER32.dll
 0002:00000334       __imp__EmptyClipboard@0    10069334       user32:USER32.dll
 0002:00000338       __imp__SetClipboardData@8  10069338       user32:USER32.dll
 0002:0000033c       __imp__OpenClipboard@4     1006933c       user32:USER32.dll
 0002:00000340       __imp__GetClipboardData@4  10069340       user32:USER32.dll
 0002:00000344       __imp__CloseClipboard@0    10069344       user32:USER32.dll
 0002:00000348       __imp__EndDialog@8         10069348       user32:USER32.dll
 0002:0000034c       __imp__GetDlgItem@8        1006934c       user32:USER32.dll
 0002:00000350       __imp__SetWindowTextA@8    10069350       user32:USER32.dll
 0002:00000354       __imp__GetDC@4             10069354       user32:USER32.dll
 0002:00000358       __imp__ReleaseDC@8         10069358       user32:USER32.dll
 0002:0000035c       __imp__wvsprintfA@12       1006935c       user32:USER32.dll
 0002:00000360       __imp__KillTimer@8         10069360       user32:USER32.dll
 0002:00000364       __imp__DispatchMessageA@4  10069364       user32:USER32.dll
 0002:00000368       __imp__TranslateMessage@4  10069368       user32:USER32.dll
 0002:0000036c       __imp__PeekMessageA@20     1006936c       user32:USER32.dll
 0002:00000370       __imp__DestroyWindow@4     10069370       user32:USER32.dll
 0002:00000374       __imp__SetTimer@16         10069374       user32:USER32.dll
 0002:00000378       __imp__GetWindowLongA@8    10069378       user32:USER32.dll
 0002:0000037c       __imp__RegisterClassA@4    1006937c       user32:USER32.dll
 0002:00000380       __imp__CreateWindowExA@48  10069380       user32:USER32.dll
 0002:00000384       __imp__PostThreadMessageA@16 10069384       user32:USER32.dll
 0002:00000388       __imp__ShowWindow@8        10069388       user32:USER32.dll
 0002:0000038c       \177USER32_NULL_THUNK_DATA 1006938c       user32:USER32.dll
 0002:00000390       __imp__timeGetTime@0       10069390       winmm:WINMM.dll
 0002:00000394       \177WINMM_NULL_THUNK_DATA  10069394       winmm:WINMM.dll
 0002:00000398       __imp__recv@16             10069398       ws2_32:WS2_32.dll
 0002:0000039c       __imp__closesocket@4       1006939c       ws2_32:WS2_32.dll
 0002:000003a0       __imp__connect@12          100693a0       ws2_32:WS2_32.dll
 0002:000003a4       __imp__socket@12           100693a4       ws2_32:WS2_32.dll
 0002:000003a8       __imp__htons@4             100693a8       ws2_32:WS2_32.dll
 0002:000003ac       __imp__inet_addr@4         100693ac       ws2_32:WS2_32.dll
 0002:000003b0       __imp__send@16             100693b0       ws2_32:WS2_32.dll
 0002:000003b4       __imp__gethostbyname@4     100693b4       ws2_32:WS2_32.dll
 0002:000003b8       __imp__WSAStartup@8        100693b8       ws2_32:WS2_32.dll
 0002:000003bc       __imp__WSACleanup@0        100693bc       ws2_32:WS2_32.dll
 0002:000003c0       \177WS2_32_NULL_THUNK_DATA 100693c0       ws2_32:WS2_32.dll
 0002:000003c4       __imp__GetOpenFileNameA@4  100693c4       comdlg32:comdlg32.dll
 0002:000003c8       __imp__GetSaveFileNameA@4  100693c8       comdlg32:comdlg32.dll
 0002:000003cc       \177comdlg32_NULL_THUNK_DATA 100693cc       comdlg32:comdlg32.dll
 0002:000003d0       __imp__Direct3DCreate9@4   100693d0       d3d9:d3d9.dll
 0002:000003d4       \177d3d9_NULL_THUNK_DATA   100693d4       d3d9:d3d9.dll
 0002:000003d8       __imp__CoInitialize@4      100693d8       ole32:ole32.dll
 0002:000003dc       __imp__CoUninitialize@0    100693dc       ole32:ole32.dll
 0002:000003e0       __imp__CoCreateInstance@20 100693e0       ole32:ole32.dll
 0002:000003e4       __imp__ReleaseStgMedium@4  100693e4       ole32:ole32.dll
 0002:000003e8       __imp__RevokeDragDrop@4    100693e8       ole32:ole32.dll
 0002:000003ec       __imp__RegisterDragDrop@8  100693ec       ole32:ole32.dll
 0002:000003f0       __imp__OleInitialize@4     100693f0       ole32:ole32.dll
 0002:000003f4       __imp__CoTaskMemFree@4     100693f4       ole32:ole32.dll
 0002:000003f8       __imp__OleUninitialize@0   100693f8       ole32:ole32.dll
 0002:000003fc       __imp__DoDragDrop@16       100693fc       ole32:ole32.dll
 0002:00000400       \177ole32_NULL_THUNK_DATA  10069400       ole32:ole32.dll
 0002:0000042c       ??_C@_05IGDIHLIN@1?40?44?$AA@ 1006942c       uncompr.obj
 0002:00000454       ??_C@_0BP@LFPDMGJD@Unsupported?5output?5file?5format?$AA@ 10069454       cjpeg.obj
 0002:00000474       ??_C@_0BP@PNGOAGFF@Unrecognized?5input?5file?5format?$AA@ 10069474       cjpeg.obj
 0002:00000494       ??_C@_0O@CLHPJHBJ@ungetc?5failed?$AA@ 10069494       cjpeg.obj
 0002:000004a4       ??_C@_0DF@HGLEKKBH@Output?5file?5format?5cannot?5handle@ 100694a4       cjpeg.obj
 0002:000004dc       ??_C@_0DD@FMDKBEKK@Color?5map?5file?5is?5invalid?5or?5of?5@ 100694dc       cjpeg.obj
 0002:00000510       ??_C@_0BP@GKCMLCLN@Targa?5support?5was?5not?5compiled?$AA@ 10069510       cjpeg.obj
 0002:00000530       ??_C@_0DJ@ILAIMHFH@?5?5?9scans?5file?5?5?5?5Create?5multi?9sc@ 10069530       cjpeg.obj
 0002:0000056c       ??_C@_0DF@CHBLCMKC@?5?5?9sample?5HxV?$FL?0?4?4?4?$FN?5?5Set?5compone@ 1006956c       cjpeg.obj
 0002:000005a4       ??_C@_0DI@GDBMKAKE@?5?5?9qslots?5N?$FL?0?4?4?4?$FN?5?5?5?5Set?5compone@ 100695a4       cjpeg.obj
 0002:000005dc       ??_C@_0DI@BGAJHHDF@?5?5?9qtables?5file?5?5Use?5quantizatio@ 100695dc       cjpeg.obj
 0002:00000614       ??_C@_0CI@LHFNKEPD@?5?5?9baseline?5?5?5?5?5?5Force?5baseline?5@ 10069614       cjpeg.obj
 0002:0000063c       ??_C@_0BH@IPAHNAMH@Switches?5for?5wizards?3?6?$AA@ 1006963c       cjpeg.obj
 0002:00000654       ??_C@_0CM@KEMMEFKH@?5?5?9verbose?5?5or?5?5?9debug?5?5?5Emit?5de@ 10069654       cjpeg.obj
 0002:00000680       ??_C@_0CP@GKMJJJFI@?5?5?9outfile?5name?5?5Specify?5name?5fo@ 10069680       cjpeg.obj
 0002:000006b0       ??_C@_0DE@MECLNFCO@?5?5?9maxmemory?5N?5?5?5Maximum?5memory?5@ 100696b0       cjpeg.obj
 0002:000006e8       ??_C@_0EE@MILHNKKC@?5?5?9restart?5N?5?5?5?5?5Set?5restart?5int@ 100696e8       cjpeg.obj
 0002:0000072c       ??_C@_0DC@OIEOLGCN@?5?5?9dct?5float?5?5?5?5?5Use?5floating?9po@ 1006972c       cjpeg.obj
 0002:00000760       ??_C@_0L@KLFICBNE@?5?$CIdefault?$CJ?$AA@ 10069760       cjpeg.obj
 0002:0000076c       ??_C@_0BO@EKCLLMF@Switches?5for?5advanced?5users?3?6?$AA@ 1006976c       cjpeg.obj
 0002:0000078c       ??_C@_0CP@JMPOEDOB@?5?5?9progressive?5?5?5Create?5progress@ 1006978c       cjpeg.obj
 0002:000007c0       ??_C@_0EO@GGLHFJMN@?5?5?9optimize?5?5?5?5?5?5Optimize?5Huffma@ 100697c0       cjpeg.obj
 0002:00000810       ??_C@_0CO@BHGLBLKA@?5?5?9grayscale?5?5?5?5?5Create?5monochro@ 10069810       cjpeg.obj
 0002:00000840       ??_C@_0EF@JOMMCHMK@?5?5?9quality?5N?5?5?5?5?5Compression?5qua@ 10069840       cjpeg.obj
 0002:00000888       ??_C@_0CG@DHBJHKD@Switches?5?$CInames?5may?5be?5abbreviat@ 10069888       cjpeg.obj
 0002:000008b0       ??_C@_0N@MENKKJDJ@?$FLinputfile?$FN?6?$AA@ 100698b0       cjpeg.obj
 0002:000008c0       ??_C@_0BG@CPLONCDP@usage?3?5?$CFs?5?$FLswitches?$FN?5?$AA@ 100698c0       cjpeg.obj
 0002:000008d8       ??_C@_0CM@IBCEODBI@?$CFs?3?5sorry?0?5arithmetic?5coding?5not@ 100698d8       cjpeg.obj
 0002:00000904       ??_C@_0CP@IJPCGCJI@Independent?5JPEG?5Group?8s?5CJPEG?0?5@ 10069904       cjpeg.obj
 0002:00000934       ??_C@_0M@JNBJJLAI@6?5?52?9Aug?995?$AA@ 10069934       cjpeg.obj
 0002:00000940       ??_C@_0CD@HPLBEMMI@Copyright?5?$CIC?$CJ?51995?0?5Thomas?5G?4?5La@ 10069940       cjpeg.obj
 0002:00000964       ??_C@_05IKJEKACC@targa?$AA@ 10069964       cjpeg.obj
 0002:0000096c       ??_C@_06INICNAFJ@smooth?$AA@ 1006996c       cjpeg.obj
 0002:00000974       ??_C@_05NINIHANH@scans?$AA@ 10069974       cjpeg.obj
 0002:0000097c       ??_C@_06CPGBIIAO@sample?$AA@ 1006997c       cjpeg.obj
 0002:00000984       ??_C@_07LDHOHMPD@restart?$AA@ 10069984       cjpeg.obj
 0002:0000098c       ??_C@_07PJKENGDH@qtables?$AA@ 1006998c       cjpeg.obj
 0002:00000994       ??_C@_06MNFHBDNB@qslots?$AA@ 10069994       cjpeg.obj
 0002:0000099c       ??_C@_02DPKJAMEF@?$CFd?$AA@ 1006999c       cjpeg.obj
 0002:000009a0       ??_C@_07DADGLCBN@quality?$AA@ 100699a0       cjpeg.obj
 0002:000009a8       ??_C@_0M@BECHMDJA@progressive?$AA@ 100699a8       cjpeg.obj
 0002:000009b4       ??_C@_07LEOOLFBI@outfile?$AA@ 100699b4       cjpeg.obj
 0002:000009bc       ??_C@_08GIBBNMIA@optimise?$AA@ 100699bc       cjpeg.obj
 0002:000009c8       ??_C@_08GHMAOHAP@optimize?$AA@ 100699c8       cjpeg.obj
 0002:000009d4       ??_C@_05IBIMIMKO@?$CFld?$CFc?$AA@ 100699d4       cjpeg.obj
 0002:000009dc       ??_C@_09BFPGJOGP@maxmemory?$AA@ 100699dc       cjpeg.obj
 0002:000009e8       ??_C@_09JJBJBHMG@greyscale?$AA@ 100699e8       cjpeg.obj
 0002:000009f4       ??_C@_09BNFDBJDM@grayscale?$AA@ 100699f4       cjpeg.obj
 0002:00000a00       ??_C@_07KBAMPNJK@verbose?$AA@ 10069a00       cjpeg.obj
 0002:00000a08       ??_C@_05GFCDIDHO@debug?$AA@ 10069a08       cjpeg.obj
 0002:00000a10       ??_C@_05KNFBNCOH@float?$AA@ 10069a10       cjpeg.obj
 0002:00000a18       ??_C@_04LBNBHAJC@fast?$AA@ 10069a18       cjpeg.obj
 0002:00000a20       ??_C@_03JBIPMCLC@int?$AA@  10069a20       cjpeg.obj
 0002:00000a24       ??_C@_03GLDNIJDM@dct?$AA@  10069a24       cjpeg.obj
 0002:00000a28       ??_C@_08LCLEONAE@baseline?$AA@ 10069a28       cjpeg.obj
 0002:00000a34       ??_C@_0L@JPCOODOA@arithmetic?$AA@ 10069a34       cjpeg.obj
 0002:00000a40       ??_C@_02GMLFBBN@wb?$AA@    10069a40       cjpeg.obj
 0002:00000a44       ??_C@_0BD@OHPCJAEM@?$CFs?3?5can?8t?5open?5?$CFs?6?$AA@ 10069a44       cjpeg.obj
 0002:00000a58       ??_C@_02JDPG@rb?$AA@       10069a58       cjpeg.obj
 0002:00000a5c       ??_C@_0BJ@NMNEFEGK@?$CFs?3?5only?5one?5input?5file?6?$AA@ 10069a5c       cjpeg.obj
 0002:00000a78       ??_C@_05BMEABIHD@cjpeg?$AA@ 10069a78       cjpeg.obj
 0002:00000a80       __real@3ff0000000000000    10069a80       jcapimin.obj
 0002:00000ac8       __real@4020000000000000    10069ac8       jcdctmgr.obj
 0002:00000ad0       __real@40d0002000000000    10069ad0       jcdctmgr.obj
 0002:000011a4       ??_C@_0CL@OCGBAKPF@Application?5transferred?5too?5many@ 1006a1a4       jerror.obj
 0002:000011d0       ??_C@_0CL@BAKCGOKJ@Invalid?5SOS?5parameters?5for?5seque@ 1006a1d0       jerror.obj
 0002:000011fc       ??_C@_0DI@NFMBADOH@Corrupt?5JPEG?5data?3?5found?5marker?5@ 1006a1fc       jerror.obj
 0002:00001234       ??_C@_0BL@DPFPFMLM@Premature?5end?5of?5JPEG?5file?$AA@ 1006a234       jerror.obj
 0002:00001250       ??_C@_0CO@ODCCEDLN@Warning?3?5unknown?5JFIF?5revision?5n@ 1006a250       jerror.obj
 0002:00001280       ??_C@_0CE@PBLDOPKB@Corrupt?5JPEG?5data?3?5bad?5Huffman?5c@ 1006a280       jerror.obj
 0002:000012a4       ??_C@_0DB@PGMEPGHN@Corrupt?5JPEG?5data?3?5premature?5end@ 1006a2a4       jerror.obj
 0002:000012d8       ??_C@_0DM@PCOGCKJB@Corrupt?5JPEG?5data?3?5?$CFu?5extraneous@ 1006a2d8       jerror.obj
 0002:00001318       ??_C@_0EC@CBCJOINE@Inconsistent?5progression?5sequenc@ 1006a318       jerror.obj
 0002:0000135c       ??_C@_0CG@KEGHCDOM@Unknown?5Adobe?5color?5transform?5co@ 1006a35c       jerror.obj
 0002:00001384       ??_C@_0BH@LJLGPEFF@Obtained?5XMS?5handle?5?$CFu?$AA@ 1006a384       jerror.obj
 0002:0000139c       ??_C@_0BE@FOGGKKAO@Freed?5XMS?5handle?5?$CFu?$AA@ 1006a39c       jerror.obj
 0002:000013b0       ??_C@_0DE@EEJCDLOO@Unrecognized?5component?5IDs?5?$CFd?5?$CFd@ 1006a3b0       jerror.obj
 0002:000013e4       ??_C@_0BJ@GOCABEP@Opened?5temporary?5file?5?$CFs?$AA@ 1006a3e4       jerror.obj
 0002:00001400       ??_C@_0BJ@KDCGAOJB@Closed?5temporary?5file?5?$CFs?$AA@ 1006a400       jerror.obj
 0002:0000141c       ??_C@_0BN@GAMIJLDC@?5?5Ss?$DN?$CFd?0?5Se?$DN?$CFd?0?5Ah?$DN?$CFd?0?5Al?$DN?$CFd?$AA@ 1006a41c       jerror.obj
 0002:0000143c       ??_C@_0BO@CDEKFGLC@?5?5?5?5Component?5?$CFd?3?5dc?$DN?$CFd?5ac?$DN?$CFd?$AA@ 1006a43c       jerror.obj
 0002:0000145c       ??_C@_0BN@BLOOHNC@Start?5Of?5Scan?3?5?$CFd?5components?$AA@ 1006a45c       jerror.obj
 0002:0000147c       ??_C@_0P@JLCHJELA@Start?5of?5Image?$AA@ 1006a47c       jerror.obj
 0002:0000148c       ??_C@_0BP@EDCAMHHE@?5?5?5?5Component?5?$CFd?3?5?$CFdhx?$CFdv?5q?$DN?$CFd?$AA@ 1006a48c       jerror.obj
 0002:000014ac       ??_C@_0DK@DMINKOGN@Start?5Of?5Frame?50x?$CF02x?3?5width?$DN?$CFu?0@ 1006a4ac       jerror.obj
 0002:000014e8       ??_C@_0DJ@PCBCLFML@Smoothing?5not?5supported?5with?5non@ 1006a4e8       jerror.obj
 0002:00001524       ??_C@_05LLAPAOG@RST?$CFd?$AA@ 1006a524       jerror.obj
 0002:0000152c       ??_C@_0CF@NIMOLBCP@At?5marker?50x?$CF02x?0?5recovery?5actio@ 1006a52c       jerror.obj
 0002:00001554       ??_C@_0CE@FDPBEAOO@Selected?5?$CFd?5colors?5for?5quantizat@ 1006a554       jerror.obj
 0002:00001578       ??_C@_0BI@NEIBNACE@Quantizing?5to?5?$CFd?5colors?$AA@ 1006a578       jerror.obj
 0002:00001590       ??_C@_0CD@CNNAOOFA@Quantizing?5to?5?$CFd?5?$DN?5?$CFd?$CK?$CFd?$CK?$CFd?5colo@ 1006a590       jerror.obj
 0002:000015b4       ??_C@_0CI@GHPOCOCL@?5?5?5?5?5?5?5?5?$CF4u?5?$CF4u?5?$CF4u?5?$CF4u?5?$CF4u?5?$CF4u?5@ 1006a5b4       jerror.obj
 0002:000015dc       ??_C@_0BJ@COPODLDN@Unexpected?5marker?50x?$CF02x?$AA@ 1006a5dc       jerror.obj
 0002:000015f8       ??_C@_0CC@KHCAAFMC@Skipping?5marker?50x?$CF02x?0?5length?5?$CF@ 1006a5f8       jerror.obj
 0002:0000161c       ??_C@_0CB@BADBMAAB@?5?5?5?5with?5?$CFd?5x?5?$CFd?5thumbnail?5image@ 1006a61c       jerror.obj
 0002:00001640       ??_C@_0CL@BJMGIDLN@Unknown?5JFIF?5minor?5revision?5numb@ 1006a640       jerror.obj
 0002:0000166c       ??_C@_0DM@JLHNPIBE@Warning?3?5thumbnail?5image?5size?5do@ 1006a66c       jerror.obj
 0002:000016a8       ??_C@_0CE@MKDBBMLI@JFIF?5APP0?5marker?0?5density?5?$CFdx?$CFd?5@ 1006a6a8       jerror.obj
 0002:000016cc       ??_C@_0CI@FKGPAJC@?5?5?5?5?5?5?5?5?$CF3d?5?$CF3d?5?$CF3d?5?$CF3d?5?$CF3d?5?$CF3d?5@ 1006a6cc       jerror.obj
 0002:000016f4       ??_C@_0N@HJHFKELG@End?5Of?5Image?$AA@ 1006a6f4       jerror.obj
 0002:00001704       ??_C@_0BH@GIPOLIGC@Obtained?5EMS?5handle?5?$CFu?$AA@ 1006a704       jerror.obj
 0002:0000171c       ??_C@_0BE@IPCOOGDJ@Freed?5EMS?5handle?5?$CFu?$AA@ 1006a71c       jerror.obj
 0002:00001730       ??_C@_0BL@EMFIKBEK@Define?5Restart?5Interval?5?$CFu?$AA@ 1006a730       jerror.obj
 0002:0000174c       ??_C@_0CL@KLDOJIKN@Define?5Quantization?5Table?5?$CFd?5?5pr@ 1006a74c       jerror.obj
 0002:00001778       ??_C@_0BM@MDIEILCE@Define?5Huffman?5Table?50x?$CF02x?$AA@ 1006a778       jerror.obj
 0002:00001794       ??_C@_0CH@KIJGKPAA@Define?5Arithmetic?5Table?50x?$CF02x?3?5@ 1006a794       jerror.obj
 0002:000017bc       ??_C@_0CM@CAEPHFAA@Unknown?5APP14?5marker?5?$CInot?5Adobe?$CJ@ 1006a7bc       jerror.obj
 0002:000017e8       ??_C@_0CK@HCPFFNKJ@Unknown?5APP0?5marker?5?$CInot?5JFIF?$CJ?0?5@ 1006a7e8       jerror.obj
 0002:00001818       ??_C@_0EC@EHPKAOHA@Adobe?5APP14?5marker?3?5version?5?$CFd?0?5@ 1006a818       jerror.obj
 0002:0000185c       ??_C@_0DO@EGLODMBB@Caution?3?5quantization?5tables?5are@ 1006a85c       jerror.obj
 0002:0000189c       ??_C@_0BE@FDPDCBIN@Write?5to?5XMS?5failed?$AA@ 1006a89c       jerror.obj
 0002:000018b0       ??_C@_0BF@EKLGFGNM@Read?5from?5XMS?5failed?$AA@ 1006a8b0       jerror.obj
 0002:000018c8       ??_C@_0CH@LJLHCCHC@Image?5too?5wide?5for?5this?5implemen@ 1006a8c8       jerror.obj
 0002:000018f0       ??_C@_0CD@GCLFJCHC@Virtual?5array?5controller?5messed?5@ 1006a8f0       jerror.obj
 0002:00001914       ??_C@_0BP@BPKOBOIP@Unsupported?5marker?5type?50x?$CF02x?$AA@ 1006a914       jerror.obj
 0002:00001934       ??_C@_0CK@EPADOAKC@Application?5transferred?5too?5few?5@ 1006a934       jerror.obj
 0002:00001960       ??_C@_0DG@KALDLIJB@Write?5failed?5on?5temporary?5file?5?9@ 1006a960       jerror.obj
 0002:00001998       ??_C@_0BO@GOBJOAAI@Seek?5failed?5on?5temporary?5file?$AA@ 1006a998       jerror.obj
 0002:000019b8       ??_C@_0BO@EEPJGHHI@Read?5failed?5on?5temporary?5file?$AA@ 1006a9b8       jerror.obj
 0002:000019d8       ??_C@_0CD@POKNOPOF@Failed?5to?5create?5temporary?5file?5@ 1006a9d8       jerror.obj
 0002:000019fc       ??_C@_0CM@HONLBDPH@Invalid?5JPEG?5file?5structure?3?5SOS@ 1006a9fc       jerror.obj
 0002:00001a28       ??_C@_0CN@HGJCMLNE@Invalid?5JPEG?5file?5structure?3?5two@ 1006aa28       jerror.obj
 0002:00001a58       ??_C@_0CK@HMKECJK@Unsupported?5JPEG?5process?3?5SOF?5ty@ 1006aa58       jerror.obj
 0002:00001a84       ??_C@_0DA@GJIJGINK@Invalid?5JPEG?5file?5structure?3?5mis@ 1006aa84       jerror.obj
 0002:00001ab4       ??_C@_0CN@IHJJJAFJ@Invalid?5JPEG?5file?5structure?3?5two@ 1006aab4       jerror.obj
 0002:00001ae4       ??_C@_0CH@NHMNHHIB@Cannot?5quantize?5to?5more?5than?5?$CFd?5@ 1006aae4       jerror.obj
 0002:00001b0c       ??_C@_0CI@PLMPLCNO@Cannot?5quantize?5to?5fewer?5than?5?$CFd@ 1006ab0c       jerror.obj
 0002:00001b34       ??_C@_0CO@HPDBAEEA@Cannot?5quantize?5more?5than?5?$CFd?5col@ 1006ab34       jerror.obj
 0002:00001b64       ??_C@_0BO@DJPLELIB@Insufficient?5memory?5?$CIcase?5?$CFd?$CJ?$AA@ 1006ab64       jerror.obj
 0002:00001b84       ??_C@_0CL@GNLFDFCL@Not?5a?5JPEG?5file?3?5starts?5with?50x?$CF@ 1006ab84       jerror.obj
 0002:00001bb0       ??_C@_0CK@CCHKIENB@Quantization?5table?50x?$CF02x?5was?5no@ 1006abb0       jerror.obj
 0002:00001bdc       ??_C@_0CC@BKPLBDLJ@JPEG?5datastream?5contains?5no?5imag@ 1006abdc       jerror.obj
 0002:00001c00       ??_C@_0CF@BKANFCCL@Huffman?5table?50x?$CF02x?5was?5not?5def@ 1006ac00       jerror.obj
 0002:00001c28       ??_C@_0BM@HJHFKLAF@Backing?5store?5not?5supported?$AA@ 1006ac28       jerror.obj
 0002:00001c44       ??_C@_0CO@BEHINNOI@Requested?5feature?5was?5omitted?5at@ 1006ac44       jerror.obj
 0002:00001c74       ??_C@_0BE@EOAAHHJ@Not?5implemented?5yet?$AA@ 1006ac74       jerror.obj
 0002:00001c88       ??_C@_0CH@EFBBPPCK@Invalid?5color?5quantization?5mode?5@ 1006ac88       jerror.obj
 0002:00001cb0       ??_C@_0CH@NIBDNILP@Scan?5script?5does?5not?5transmit?5al@ 1006acb0       jerror.obj
 0002:00001cd8       ??_C@_0DO@OPNPKGO@Cannot?5transcode?5due?5to?5multiple@ 1006acd8       jerror.obj
 0002:00001d18       ??_C@_0BM@KEKMMNGA@Premature?5end?5of?5input?5file?$AA@ 1006ad18       jerror.obj
 0002:00001d34       ??_C@_0BB@JJAIKFBB@Empty?5input?5file?$AA@ 1006ad34       jerror.obj
 0002:00001d48       ??_C@_0CP@EKFPGPNP@Maximum?5supported?5image?5dimensio@ 1006ad48       jerror.obj
 0002:00001d78       ??_C@_0CB@LFBMFPHI@Missing?5Huffman?5code?5table?5entry@ 1006ad78       jerror.obj
 0002:00001d9c       ??_C@_0CB@LLDOGNPJ@Huffman?5code?5size?5table?5overflow@ 1006ad9c       jerror.obj
 0002:00001dc0       ??_C@_0CI@EKDDDHFF@Fractional?5sampling?5not?5implemen@ 1006adc0       jerror.obj
 0002:00001de8       ??_C@_0CP@IDOBLGGD@Output?5file?5write?5error?5?9?9?9?5out?5@ 1006ade8       jerror.obj
 0002:00001e18       ??_C@_0BG@BALCKDNL@Input?5file?5read?5error?$AA@ 1006ae18       jerror.obj
 0002:00001e30       ??_C@_0CB@DMGINPNE@Didn?8t?5expect?5more?5than?5one?5scan@ 1006ae30       jerror.obj
 0002:00001e54       ??_C@_0BE@DGJBKIEB@Write?5to?5EMS?5failed?$AA@ 1006ae54       jerror.obj
 0002:00001e68       ??_C@_0BF@CPNENPBA@Read?5from?5EMS?5failed?$AA@ 1006ae68       jerror.obj
 0002:00001e80       ??_C@_0CF@DAGGEAPM@Empty?5JPEG?5image?5?$CIDNL?5not?5suppor@ 1006ae80       jerror.obj
 0002:00001ea8       ??_C@_0BD@DIMECAOP@Bogus?5DQT?5index?5?$CFd?$AA@ 1006aea8       jerror.obj
 0002:00001ebc       ??_C@_0BD@KJHFPHIC@Bogus?5DHT?5index?5?$CFd?$AA@ 1006aebc       jerror.obj
 0002:00001ed0       ??_C@_0BB@GDNEPMHL@Bogus?5DHT?5counts?$AA@ 1006aed0       jerror.obj
 0002:00001ee4       ??_C@_0BF@CLIOOJFM@Bogus?5DAC?5value?50x?$CFx?$AA@ 1006aee4       jerror.obj
 0002:00001efc       ??_C@_0BD@LDBBBMFL@Bogus?5DAC?5index?5?$CFd?$AA@ 1006aefc       jerror.obj
 0002:00001f10       ??_C@_0CF@JDLOPNGO@Unsupported?5color?5conversion?5req@ 1006af10       jerror.obj
 0002:00001f38       ??_C@_0CG@BEBDNOCG@Too?5many?5color?5components?3?5?$CFd?0?5m@ 1006af38       jerror.obj
 0002:00001f60       ??_C@_0CF@LAEFHNAH@CCIR601?5sampling?5not?5implemented@ 1006af60       jerror.obj
 0002:00001f88       ??_C@_0BM@PKHCPJDH@Suspension?5not?5allowed?5here?$AA@ 1006af88       jerror.obj
 0002:00001fa4       ??_C@_0CL@JKHIPJLJ@Buffer?5passed?5to?5JPEG?5library?5is@ 1006afa4       jerror.obj
 0002:00001fd0       ??_C@_0BL@CBOEEPLK@Bogus?5virtual?5array?5access?$AA@ 1006afd0       jerror.obj
 0002:00001fec       ??_C@_0CK@BAMFIBMM@Improper?5call?5to?5JPEG?5library?5in@ 1006afec       jerror.obj
 0002:00002018       ??_C@_0CA@MJDDICLK@Invalid?5scan?5script?5at?5entry?5?$CFd?$AA@ 1006b018       jerror.obj
 0002:00002038       ??_C@_0BH@HMMHPOPE@Bogus?5sampling?5factors?$AA@ 1006b038       jerror.obj
 0002:00002050       ??_C@_0DH@HIKEGPKP@Invalid?5progressive?5parameters?5a@ 1006b050       jerror.obj
 0002:00002088       ??_C@_0DH@LNGGEGOL@Invalid?5progressive?5parameters?5S@ 1006b088       jerror.obj
 0002:000020c0       ??_C@_0CD@LDBDNLHK@Unsupported?5JPEG?5data?5precision?5@ 1006b0c0       jerror.obj
 0002:000020e4       ??_C@_0BM@OEMICEFD@Invalid?5memory?5pool?5code?5?$CFd?$AA@ 1006b0e4       jerror.obj
 0002:00002100       ??_C@_0DA@HLEOHNPA@Sampling?5factors?5too?5large?5for?5i@ 1006b100       jerror.obj
 0002:00002130       ??_C@_0BE@OGLAEMOG@Bogus?5marker?5length?$AA@ 1006b130       jerror.obj
 0002:00002144       ??_C@_0BG@NEGIHEMC@Bogus?5JPEG?5colorspace?$AA@ 1006b144       jerror.obj
 0002:0000215c       ??_C@_0BH@BGDIGLHC@Bogus?5input?5colorspace?$AA@ 1006b15c       jerror.obj
 0002:00002174       ??_C@_0CI@MBJANLAP@IDCT?5output?5block?5size?5?$CFd?5not?5su@ 1006b174       jerror.obj
 0002:0000219c       ??_C@_0BP@ONFLCDHG@Invalid?5component?5ID?5?$CFd?5in?5SOS?$AA@ 1006b19c       jerror.obj
 0002:000021bc       ??_C@_0BK@DKALDNKG@Bogus?5buffer?5control?5mode?$AA@ 1006b1bc       jerror.obj
 0002:000021d8       ??_C@_0CF@DENLILGA@MAX_ALLOC_CHUNK?5is?5wrong?0?5please@ 1006b1d8       jerror.obj
 0002:00002200       ??_C@_0CA@FDMPGPNI@ALIGN_TYPE?5is?5wrong?0?5please?5fix?$AA@ 1006b200       jerror.obj
 0002:00002220       ??_C@_0DJ@KONAFFHE@Sorry?0?5there?5are?5legal?5restricti@ 1006b220       jerror.obj
 0002:0000225c       ??_C@_0BG@MIBALFBH@Bogus?5message?5code?5?$CFd?$AA@ 1006b25c       jerror.obj
 0002:00002274       ??_C@_03OFAPEBGM@?$CFs?6?$AA@ 1006b274       jerror.obj
 0002:00002278       __real@3ff4e7aea0000000    1006b278       jfdctflt.obj
 0002:00002280       __real@3fe1517a80000000    1006b280       jfdctflt.obj
 0002:00002288       __real@3fd87de2a0000000    1006b288       jfdctflt.obj
 0002:00002290       __real@3fe6a09e60000000    1006b290       jfdctflt.obj
 0002:00002298       __real@3ff1517a80000000    1006b298       jidctflt.obj
 0002:000022a0       __real@4004e7aea0000000    1006b2a0       jidctflt.obj
 0002:000022a8       __real@3ffd906bc0000000    1006b2a8       jidctflt.obj
 0002:000022b0       __real@3ff6a09e60000000    1006b2b0       jidctflt.obj
 0002:000022c8       ?jpeg_zigzag_order@@3QBHB  1006b2c8       jutils.obj
 0002:000023c8       ?jpeg_natural_order@@3QBHB 1006b3c8       jutils.obj
 0002:00002508       ??_C@_0BP@GAOAEDBH@Invalid?5table?5data?5in?5file?5?$CFs?6?$AA@ 1006b508       rdswitch.obj
 0002:00002528       ??_C@_0BM@KGDCJJI@Too?5many?5tables?5in?5file?5?$CFs?6?$AA@ 1006b528       rdswitch.obj
 0002:00002544       ??_C@_0BN@MPLDKNBH@Non?9numeric?5data?5in?5file?5?$CFs?6?$AA@ 1006b544       rdswitch.obj
 0002:00002564       ??_C@_0BK@JFPJHCAE@Can?8t?5open?5table?5file?5?$CFs?6?$AA@ 1006b564       rdswitch.obj
 0002:00002580       ??_C@_01KDCPPGHE@r?$AA@    1006b580       rdswitch.obj
 0002:00002584       ??_C@_0CG@DGLMBAKG@Invalid?5scan?5entry?5format?5in?5fil@ 1006b584       rdswitch.obj
 0002:000025ac       ??_C@_0CM@JOILFGOF@Too?5many?5components?5in?5one?5scan?5@ 1006b5ac       rdswitch.obj
 0002:000025d8       ??_C@_0CD@CLNCGEKD@Too?5many?5scans?5defined?5in?5file?5?$CF@ 1006b5d8       rdswitch.obj
 0002:000025fc       ??_C@_0CE@EHGDCPBM@Can?8t?5open?5scan?5definition?5file?5@ 1006b5fc       rdswitch.obj
 0002:00002620       ??_C@_0CN@FLLADACI@JPEG?5quantization?5tables?5are?5num@ 1006b620       rdswitch.obj
 0002:00002650       ??_C@_04PEOOHEKN@?$CFd?$CFc?$AA@ 1006b650       rdswitch.obj
 0002:00002658       ??_C@_0CE@KPMNBLHF@JPEG?5sampling?5factors?5must?5be?51?4@ 1006b658       rdswitch.obj
 0002:0000267c       ??_C@_08FLOHJFHM@?$CFd?$CFc?$CFd?$CFc?$AA@ 1006b67c       rdswitch.obj
 0002:00002688       ?mapPixelFormatToDepth@NativeDisplayTester@@0QBHB 1006b688       _Display.obj
 0002:000026b0       ??_7NativeBitmap@@6B@      1006b6b0       _Display.obj
 0002:000026c8       ??_C@_0N@CDPHJFLI@NativeBitmap?$AA@ 1006b6c8       _Display.obj
 0002:000026e0       ??_C@_05DNIIFBMG@?$CFs?5?$CFs?$AA@ 1006b6e0       PlayerWnd.obj
 0002:000026e8       ??_C@_03JJNAMDDM@WIN?$AA@  1006b6e8       PlayerWnd.obj
 0002:000026ec       ??_C@_06INEFEODD@4?41001?$AA@ 1006b6ec       PlayerWnd.obj
 0002:000026f8       ??_7NativePlayerWnd@@6B@   1006b6f8       PlayerWnd.obj
 0002:0000272c       ??_C@_00CNPNBAHC@?$AA@     1006b72c       PlayerWnd.obj
 0002:00002730       ??_C@_08MFFEHBGO@showmenu?$AA@ 1006b730       PlayerWnd.obj
 0002:0000273c       ??_C@_04MGEIEJAD@exec?$AA@ 1006b73c       PlayerWnd.obj
 0002:00002744       ??_C@_0L@NNFDICCF@allowscale?$AA@ 1006b744       PlayerWnd.obj
 0002:00002750       ??_C@_0L@GIACNHMO@fullscreen?$AA@ 1006b750       PlayerWnd.obj
 0002:0000275c       ??_C@_04KNNLNNGO@quit?$AA@ 1006b75c       PlayerWnd.obj
 0002:00002764       ??_C@_07CAIJGPF@file?3?1?1?$AA@ 1006b764       PlayerWnd.obj
 0002:00002774       ??_C@_0BA@BIHPPLEE@Times?5New?5Roman?$AA@ 1006b774       edittext.obj
 0002:00002784       ??_C@_0M@KKIFGMOD@_typewriter?$AA@ 1006b784       edittext.obj
 0002:00002790       ??_C@_05MIFGCCBI@_sans?$AA@ 1006b790       edittext.obj
 0002:000031ca       ?shiftTab8@@3QBEB          1006c1ca       raster.obj
 0002:00003238       ?shiftTab1@@3QBEB          1006c238       raster.obj
 0002:00003240       ?shiftTab2@@3QBEB          1006c240       raster.obj
 0002:00003244       ?shiftTab4@@3QBEB          1006c244       raster.obj
 0002:00003248       ?rbShifts@@3QBEB           1006c248       raster.obj
 0002:0000324c       ?pxMasks@@3QBEB            1006c24c       raster.obj
 0002:00003250       ?stMasks@@3QBEB            1006c250       raster.obj
 0002:00003480       ?pix16Expand@@3QBHB        1006c480       sbitmap.obj
 0002:00003500       ?pix16ExpandR@@3QBKB       1006c500       sbitmap.obj
 0002:00003580       ?pix16ExpandG@@3QBKB       1006c580       sbitmap.obj
 0002:00003608       ??_C@_08EMNENPBA@instance?$AA@ 1006c608       sdisplay.obj
 0002:00003614       ??_C@_0M@FDFJFKFK@?$ICl?$ICr?5?$ICo?$JG?$LO?$JC?$KJ?$AA@ 1006c614       sobject.obj
 0002:00003620       ??_C@_05JBFMGEFJ@_?$JG?$LO?$JC?$KJ?$AA@ 1006c620       sobject.obj
 0002:00003628       ??_C@_0O@LAEHDGPN@?$ICl?$ICr?5?$IDS?$IDV?$IDb?$IDN?$AA@ 1006c628       sobject.obj
 0002:00003638       ??_C@_05NKDMJJNM@_?$JD?$JJ?$JF?$JN?$AA@ 1006c638       sobject.obj
 0002:00003640       ??_C@_0BA@GNIPJLFD@?$ICl?$ICr?5?$ICo?$IDS?$IDV?$IDb?$IDN?$AA@ 1006c640       sobject.obj
 0002:00003650       ??_C@_0N@JADBHCNF@MS?5UI?5Gothic?$AA@ 1006c650       sobject.obj
 0002:00003660       ??_C@_09FJNCKLPO@_?$IDS?$IDV?$IDb?$IDN?$AA@ 1006c660       sobject.obj
 0002:0000366c       ??_C@_0M@KGGAJAJ@Courier?5New?$AA@ 1006c66c       sobject.obj
 0002:00003678       ??_C@_06NOPNGKBE@_serif?$AA@ 1006c678       sobject.obj
 0002:00003680       ??_C@_05MPFIAJAP@Arial?$AA@ 1006c680       sobject.obj
 0002:00003688       __real@4000000000000000    1006c688       splay.obj
 0002:00003690       __real@3fd6b69cba168ff2    1006c690       splay.obj
 0002:00003698       __real@3ff8218dde9028b4    1006c698       splay.obj
 0002:000036a0       __real@4000eb8277cd8d5d    1006c6a0       splay.obj
 0002:000036a8       __real@40039350adad51ec    1006c6a8       splay.obj
 0002:000036b0       __real@3ffd5ae6cfa20f0c    1006c6b0       splay.obj
 0002:000036b8       __real@3fe91e2a6fe7e984    1006c6b8       splay.obj
 0002:000036c0       __real@3fc29801e893366d    1006c6c0       splay.obj
 0002:000036c8       __real@0000000000000000    1006c6c8       splay.obj
 0002:000036d0       __real@3ff965fea53d6e3d    1006c6d0       splay.obj
 0002:000036d8       __real@3ff428a2f98d728b    1006c6d8       splay.obj
 0002:000036e0       __real@3fe965fea53d6e3c    1006c6e0       splay.obj
 0002:000036e8       __real@3fe428a2f98d728a    1006c6e8       splay.obj
 0002:000036f0       ??_C@_0L@HKJOLHFP@fps?5?$DN?5?$CF3d?6?$AA@ 1006c6f0       splay.obj
 0002:00003700       __real@4024000000000000    1006c700       splayer.obj
 0002:00003708       __real@3fe0000000000000    1006c708       splayer.obj
 0002:00003710       __real@3fb999999999999a    1006c710       splayer.obj
 0002:00003718       __real@4048000000000000    1006c718       splayer.obj
 0002:00003720       ??_C@_03ICICOMAL@yes?$AA@  1006c720       splayer.obj
 0002:00003724       ??_C@_04LOAJBDKD@true?$AA@ 1006c724       splayer.obj
 0002:00003730       __real@3f70000000000000    1006c730       splayer.obj
 0002:00003738       __real@3ef0000000000000    1006c738       splayer.obj
 0002:00003740       __real@4034000000000000    1006c740       splayer.obj
 0002:00003748       ??_C@_06FAOKFMOD@_level?$AA@ 1006c748       splayer.obj
 0002:00003750       ??_C@_06ENGIGIBE@_flash?$AA@ 1006c750       splayer.obj
 0002:00003758       ??_C@_03LOJJKLGJ@?4?4?1?$AA@ 1006c758       splayer.obj
 0002:0000375c       ??_C@_01EEMJAFIK@?6?$AA@   1006c75c       splayer.obj
 0002:00003760       ??_C@_02PHMGELLB@?6?6?$AA@ 1006c760       splayer.obj
 0002:00003768       ??_C@_0EB@OCIBPBOO@Content?9type?3?5application?1x?9www?9@ 1006c768       splayer.obj
 0002:000037ac       ??_C@_0BE@IJFOHCIF@StreamInDestroy?5?$CFx?6?$AA@ 1006c7ac       splayer.obj
 0002:000037c0       ??_C@_02DJGKEECL@?4?4?$AA@ 1006c7c0       splayer.obj
 0002:000037c4       ??_C@_01OGPIMHDM@?$DP?$AA@ 1006c7c4       splayer.obj
 0002:000037c8       ??_C@_0L@GLBEIPJH@?4maxscroll?$AA@ 1006c7c8       splayer.obj
 0002:000037d4       ??_C@_07ENBDKFKF@?4scroll?$AA@ 1006c7d4       splayer.obj
 0002:000037dc       ??_C@_05HDAFIHDF@_self?$AA@ 1006c7dc       splayer.obj
 0002:000037e4       ??_C@_08HDBJIHMD@$version?$AA@ 1006c7e4       splayer.obj
 0002:000037f0       __real@3fd34413509f79fb    1006c7f0       splayer.obj
 0002:000037f8       __real@3ff8000000000000    1006c7f8       splayer.obj
 0002:00003800       ??_C@_05MFFJFPDM@skip?6?$AA@ 1006c800       splayer.obj
 0002:00003808       __real@40047ae147ae147b    1006c808       splayer.obj
 0002:00003810       __real@40f0000000000000    1006c810       splayer.obj
 0002:00003818       __real@4059000000000000    1006c818       splayer.obj
 0002:00003824       ??_7SPlayer@@6B@           1006c824       splayer.obj
 0002:00003858       ??_C@_0BD@GAEIDIIE@Deleting?3?5SPlayer?6?$AA@ 1006c858       splayer.obj
 0002:0000386c       ??_C@_0L@FNKFHPMI@FSCommand?3?$AA@ 1006c86c       splayer.obj
 0002:00003878       ??_C@_0BA@LNAPMLNM@StreamInNew?5?$CFx?6?$AA@ 1006c878       splayer.obj
 0002:00003888       ??_C@_07OGBFGPGN@_level0?$AA@ 1006c888       splayer.obj
 0002:00003890       ??_C@_01GBGANLPD@0?$AA@    1006c890       splayer.obj
 0002:00003894       ??_C@_01HIHLOKLC@1?$AA@    1006c894       splayer.obj
 0002:00003898       ??_C@_07OKGEOPHO@?$CDERROR?$CD?$AA@ 1006c898       splayer.obj
 0002:000038a0       ??_C@_08FOPGLNCN@_changed?$AA@ 1006c8a0       splayer.obj
 0002:000038ac       _IID_IAMFilterGraphCallback 1006c8ac       avi.obj
 0002:000038c0       ??_7AaviRead@@6B@          1006c8c0       avi.obj
 0002:000038d8       __real@40e5888000000000    1006c8d8       avi.obj
 0002:000038e0       __real@4f800000            1006c8e0       avi.obj
 0002:000038e4       __real@41c80000            1006c8e4       avi.obj
 0002:000038e8       __real@3f800000            1006c8e8       avi.obj
 0002:000038ec       __real@00000000            1006c8ec       avi.obj
 0002:000038f0       ??_C@_0CI@NJFPJPEI@audio?5need?5to?5be?5interlaced?5ever@ 1006c8f0       avi.obj
 0002:00003918       ??_C@_0BG@GEJHALLL@audio?5codec?5not?5found?$AA@ 1006c918       avi.obj
 0002:00003934       ??_7Achunk@@6B@            1006c934       avi.obj
 0002:00003938       ??_C@_04NPHJJIEH@movi?$AA@ 1006c938       avi.obj
 0002:00003940       ??_C@_04HCANFCJ@strf?$AA@  1006c940       avi.obj
 0002:00003948       ??_C@_04JJKDPIKH@strh?$AA@ 1006c948       avi.obj
 0002:00003950       ??_C@_04PNMPDNKD@strl?$AA@ 1006c950       avi.obj
 0002:00003958       ??_C@_04DJPJLIFP@avih?$AA@ 1006c958       avi.obj
 0002:00003960       ??_C@_04LKOGMMKP@hdrl?$AA@ 1006c960       avi.obj
 0002:00003968       ??_C@_04PCOPKCKE@LIST?$AA@ 1006c968       avi.obj
 0002:00003970       ??_C@_04FIOHLLII@AVI?5?$AA@ 1006c970       avi.obj
 0002:00003978       ??_C@_04EPCGJKAP@RIFF?$AA@ 1006c978       avi.obj
 0002:00003980       ??_C@_04IFAEEDNA@idx1?$AA@ 1006c980       avi.obj
 0002:00003988       ??_C@_04NGBOFIFA@01wb?$AA@ 1006c988       avi.obj
 0002:00003990       ??_C@_04HAMCCCBM@00db?$AA@ 1006c990       avi.obj
 0002:00003998       ??_C@_04CNAOAAJB@?4AVI?$AA@ 1006c998       avi.obj
 0002:000039a0       ??_C@_05KNIAAKIP@audio?$AA@ 1006c9a0       avi.obj
 0002:000039a8       __real@3fb99999a0000000    1006c9a8       avi.obj
 0002:000039b0       __real@4105888000000000    1006c9b0       avi.obj
 0002:000039b8       __real@412e848000000000    1006c9b8       avi.obj
 0002:000039c4       ??_7AaviWrite@@6B@         1006c9c4       avi.obj
 0002:000039dc       ??_C@_08GKLCHDJN@AaviRead?$AA@ 1006c9dc       avi.obj
 0002:000039e8       ??_C@_09MNMBJDNG@AaviWrite?$AA@ 1006c9e8       avi.obj
 0002:000039f8       __real@406fe00000000000    1006c9f8       bitmap.obj
 0002:00003a00       __real@402e000000000000    1006ca00       bitmap.obj
 0002:00003a08       ??_C@_0BK@BDAEMFJH@unknown?5depth?5resolution?4?$AA@ 1006ca08       bitmap.obj
 0002:00003a24       ??_C@_0O@HOFHDAC@memory?5error?4?$AA@ 1006ca24       bitmap.obj
 0002:00003a34       ??_C@_0BA@BJCDDPLC@outside?5region?4?$AA@ 1006ca34       bitmap.obj
 0002:00003a44       ??_C@_0BG@EGICICIF@unknown?5bitmap?5state?4?$AA@ 1006ca44       bitmap.obj
 0002:00003a60       __real@406fffae20000000    1006ca60       bitmap.obj
 0002:00003a68       ??_C@_0CP@EKCLALKB@incompatible?5depth?5resolution?5or@ 1006ca68       bitmap.obj
 0002:00003a98       ??_C@_0DI@ECBABLJD@incompatible?5depth?5resolution?5be@ 1006ca98       bitmap.obj
 0002:00003ad0       __real@4070000000000000    1006cad0       bitmap.obj
 0002:00003ad8       ??_C@_0CA@DCEKKMCC@invalid?5width?5or?5height?5source?4?$AA@ 1006cad8       bitmap.obj
 0002:00003af8       ??_C@_0BH@MNPNHOBN@invalid?5source?5region?4?$AA@ 1006caf8       bitmap.obj
 0002:00003b10       ??_C@_0EB@FGGCICGG@incompatible?5depth?5resolution?5or@ 1006cb10       bitmap.obj
 0002:00003b54       ??_C@_0BP@HIBPAKME@incompatible?5depth?5resolution?4?$AA@ 1006cb54       bitmap.obj
 0002:00003b78       __real@3fd0000000000000    1006cb78       bitmap.obj
 0002:00003b80       __real@400921fb54442eea    1006cb80       bitmap.obj
 0002:00003b88       __real@4080000000000000    1006cb88       bitmap.obj
 0002:00003b90       ??_C@_05KPIGABMB@?4jpeg?$AA@ 1006cb90       bitmap.obj
 0002:00003b98       ??_C@_04GNPKBLNA@?4jpg?$AA@ 1006cb98       bitmap.obj
 0002:00003ba0       ??_C@_05JPCDEKMM@1?40?45?$AA@ 1006cba0       bitmap.obj
 0002:00003ba8       ??_C@_04EEOGCCFB@?4png?$AA@ 1006cba8       bitmap.obj
 0002:00003bb0       ??_C@_04LJDDIHIK@?4bmp?$AA@ 1006cbb0       bitmap.obj
 0002:00003bb8       ??_C@_0BA@JJKIAAEB@not?5implemented?$AA@ 1006cbb8       bitmap.obj
 0002:00003bc8       ??_C@_07PBNIALDK@readBMP?$AA@ 1006cbc8       bitmap.obj
 0002:00003bd0       ??_C@_03NAIKFGEJ@PNG?$AA@  1006cbd0       bitmap.obj
 0002:00003bd8       ??_7Abitmap@@6B@           1006cbd8       bitmap.obj
 0002:00003bf0       ??_C@_06PCHFJCOP@bitmap?$AA@ 1006cbf0       bitmap.obj
 0002:00003bf8       ??_C@_07OPAMFAIL@Abitmap?$AA@ 1006cbf8       bitmap.obj
 0002:00003c04       ??_7Afile@@6B@             1006cc04       buffer.obj
 0002:00003c4c       ??_7Abuffer@@6B@           1006cc4c       buffer.obj
 0002:00003c90       ??_C@_07GDAGBLNG@Abuffer?$AA@ 1006cc90       buffer.obj
 0002:00003c9c       ??_7Abutton@@6B@           1006cc9c       button.obj
 0002:00003d1c       ??_C@_07GINGJIKL@Abutton?$AA@ 1006cd1c       button.obj
 0002:00003d28       ??_7Ad3d@@6B@              1006cd28       d3d.obj
 0002:00003d5c       ??_C@_07HAOKNHOC@?$CFs?5?$FL?$CFs?$FN?$AA@ 1006cd5c       d3d.obj
 0002:00003d64       ??_C@_0BE@ICPNAIL@out?5of?5video?5memory?$AA@ 1006cd64       d3d.obj
 0002:00003d78       ??_C@_0M@PHCNFNOA@not?5avaible?$AA@ 1006cd78       d3d.obj
 0002:00003d84       ??_C@_0N@EIBHAONH@invalid?5call?$AA@ 1006cd84       d3d.obj
 0002:00003d94       ??_C@_04MPLGOMCF@Ad3d?$AA@ 1006cd94       d3d.obj
 0002:00003da4       ??_7Adisplay@@6B@          1006cda4       display.obj
 0002:00003e18       ??_C@_08CIOMOPNB@Adisplay?$AA@ 1006ce18       display.obj
 0002:00003e2c       ??_7Aedit@@6B@             1006ce2c       edit.obj
 0002:00003ea8       ??_C@_05GDPKFDKB@Aedit?$AA@ 1006cea8       edit.obj
 0002:00003eb0       ??_C@_05IDCCBAFH@Afile?$AA@ 1006ceb0       file.obj
 0002:00003eb8       ??_C@_0BC@JEEACPFE@select?5a?5computer?$AA@ 1006ceb8       filedlg.obj
 0002:00003ecc       ??_C@_09PHBFFFFE@save?5file?$AA@ 1006cecc       filedlg.obj
 0002:00003ed8       ??_C@_09IBAPAADC@open?5file?$AA@ 1006ced8       filedlg.obj
 0002:00003ee8       ??_7AfileDlg@@6B@          1006cee8       filedlg.obj
 0002:00003f00       ??_C@_08IJFGGLEN@AfileDlg?$AA@ 1006cf00       filedlg.obj
 0002:00003f14       ??_7Afilehd@@6B@           1006cf14       filehd.obj
 0002:00003f54       ??_C@_07KPBIGMOO@Afilehd?$AA@ 1006cf54       filehd.obj
 0002:00003f64       ??_7Afilemem@@6B@          1006cf64       filemem.obj
 0002:00003fa4       ??_C@_08KBFCFIPM@Afilemem?$AA@ 1006cfa4       filemem.obj
 0002:00003fb4       ??_7Aflash@@6B@            1006cfb4       flash.obj
 0002:00004028       ??_C@_06HKIJIPIH@Aflash?$AA@ 1006d028       flash.obj
 0002:00004034       ??_7Afont@@6B@             1006d034       font.obj
 0002:0000406c       ??_C@_05PGBELIPF@Afont?$AA@ 1006d06c       font.obj
 0002:00004074       ??_C@_09PFCHIMEP@127?40?40?41?$AA@ 1006d074       ftp.obj
 0002:00004080       ??_C@_06HOHPNJLC@buffer?$AA@ 1006d080       ftp.obj
 0002:00004088       ??_C@_02PCIJFNDE@?$AN?6?$AA@ 1006d088       ftp.obj
 0002:0000408c       ??_C@_05DAHPNLBJ@STOR?5?$AA@ 1006d08c       ftp.obj
 0002:00004094       ??_C@_06OGKAIOED@PASV?$AN?6?$AA@ 1006d094       ftp.obj
 0002:0000409c       ??_C@_08NFILCCME@TYPE?5I?$AN?6?$AA@ 1006d09c       ftp.obj
 0002:000040a8       ??_C@_05FOGDDFF@PASS?5?$AA@ 1006d0a8       ftp.obj
 0002:000040b0       ??_C@_05DLLLAEHA@USER?5?$AA@ 1006d0b0       ftp.obj
 0002:000040bc       ??_7AftpClient@@6BAthread@@@ 1006d0bc       ftp.obj
 0002:000040c8       ??_7AftpClient@@6BAnode@@@ 1006d0c8       ftp.obj
 0002:000040e8       ??_C@_0L@MFENBHFC@AftpClient?$AA@ 1006d0e8       ftp.obj
 0002:000040f8       ??_7Alib@@6B@              1006d0f8       interface.obj
 0002:000040fc       __real@3c23d70a            1006d0fc       interface.obj
 0002:00004100       ??_C@_07ECKEAAHG@tube?510?$AA@ 1006d100       interface.obj
 0002:00004108       ??_C@_08MABPHAOE@leave?510?$AA@ 1006d108       interface.obj
 0002:00004114       ??_C@_07OHBOMJOB@army?510?$AA@ 1006d114       interface.obj
 0002:0000411c       ??_C@_0BA@KMOPEHMH@confidential?536?$AA@ 1006d11c       interface.obj
 0002:0000412c       ??_C@_0BA@JPBLEPHC@confidential?524?$AA@ 1006d12c       interface.obj
 0002:0000413c       ??_C@_0BA@PLHHIKHG@confidential?520?$AA@ 1006d13c       interface.obj
 0002:0000414c       ??_C@_0BA@KPGLJDKJ@confidential?516?$AA@ 1006d14c       interface.obj
 0002:0000415c       ??_C@_0BA@JNFNPBCL@confidential?514?$AA@ 1006d15c       interface.obj
 0002:0000416c       ??_C@_0L@ICDAPIG@segment?520?$AA@ 1006d16c       interface.obj
 0002:00004178       ??_C@_0L@KGFLBNP@segment?510?$AA@ 1006d178       interface.obj
 0002:00004184       ??_C@_0M@CNIBGFHD@0123456789?4?$AA@ 1006d184       interface.obj
 0002:00004190       ??_C@_0L@FNPNHMGO@segment?506?$AA@ 1006d190       interface.obj
 0002:0000419c       ??_C@_0N@OMIIHPJK@0123456789?4?3?$AA@ 1006d19c       interface.obj
 0002:000041ac       ??_C@_0M@DONJDEEE@terminal?512?$AA@ 1006d1ac       interface.obj
 0002:000041b8       ??_C@_0M@NMOPIHLI@terminal?509?$AA@ 1006d1b8       interface.obj
 0002:000041c4       ??_C@_0M@FLHHJLHH@terminal?506?$AA@ 1006d1c4       interface.obj
 0002:000041d0       ??_C@_0M@HAFKMILE@terminal?505?$AA@ 1006d1d0       interface.obj
 0002:000041dc       ??_C@_0BB@NJGNIPIG@arial?5rounded?520?$AA@ 1006d1dc       interface.obj
 0002:000041f0       ??_C@_0BB@OJBNFDFN@arial?5rounded?512?$AA@ 1006d1f0       interface.obj
 0002:00004204       ??_C@_0BB@NLCLDBNP@arial?5rounded?510?$AA@ 1006d204       interface.obj
 0002:00004218       ??_C@_0BB@BCDANBOA@arial?5rounded?508?$AA@ 1006d218       interface.obj
 0002:0000422c       ??_C@_06FDDOPIBE@font01?$AA@ 1006d22c       interface.obj
 0002:00004238       ??_C@_0HA@FOMAIMM@abcdefghijklmnopqrstuvwxyzABCDEF@ 1006d238       interface.obj
 0002:000042a8       ??_C@_07NLEHDNM@mailto?3?$AA@ 1006d2a8       interface.obj
 0002:000042b0       ??_C@_01FGNFDNOH@?$CF?$AA@ 1006d2b0       interface.obj
 0002:000042b4       ??_C@_0CF@FGFDLJPE@?2Protocols?2Mailto?2Shell?2Open?2Com@ 1006d2b4       interface.obj
 0002:000042dc       ??_C@_0BG@CBAJPBHG@SOFTWARE?2Clients?2Mail?$AA@ 1006d2dc       interface.obj
 0002:000042f4       ??_C@_0BI@JONAMOPE@file?2shell?2open?2command?$AA@ 1006d2f4       interface.obj
 0002:0000430c       ??_C@_0BE@IIFJAPHG@DllUnregisterServer?$AA@ 1006d30c       interface.obj
 0002:00004320       ??_C@_0BC@NPBLIDJ@DllRegisterServer?$AA@ 1006d320       interface.obj
 0002:00004334       ??_C@_07LFDJJADK@alib100?$AA@ 1006d334       interface.obj
 0002:0000433c       ??_C@_0O@JJKCCOPE@alib?5resource?$AA@ 1006d33c       interface.obj
 0002:0000434c       ??_C@_0O@POGBENGA@main?5resource?$AA@ 1006d34c       interface.obj
 0002:00004360       ??_7Aitem@@6B@             1006d360       item.obj
 0002:00004378       ??_C@_05BBMLDPKE@Atree?$AA@ 1006d378       item.obj
 0002:00004384       ??_7Alist@@6B@             1006d384       list.obj
 0002:000043f4       ??_C@_09GHGBPMKB@list?5menu?$AA@ 1006d3f4       list.obj
 0002:00004400       ??_C@_05INDBMPKL@Alist?$AA@ 1006d400       list.obj
 0002:0000440c       ??_7Amenu@@6B@             1006d40c       menu.obj
 0002:00004478       __real@3f000000            1006d478       menu.obj
 0002:0000447c       __real@3f666666            1006d47c       menu.obj
 0002:00004480       ??_C@_0CJ@OEILLDGO@left?5click?5?9?$DO?5OK?5?1?5right?5click?5?9@ 1006d480       menu.obj
 0002:000044ac       ??_C@_0N@OPOFAENM@context?5menu?$AA@ 1006d4ac       menu.obj
 0002:000044bc       ??_C@_07DODFDIGM@submenu?$AA@ 1006d4bc       menu.obj
 0002:000044c4       ??_C@_05PHGCFIMB@Amenu?$AA@ 1006d4c4       menu.obj
 0002:000044cc       ??_C@_08DMENJBGE@jpg?5file?$AA@ 1006d4cc       movie.obj
 0002:000044d8       ??_C@_04JLNKANFB@MPEG?$AA@ 1006d4d8       movie.obj
 0002:000044e0       ??_C@_05NBJMDPKJ@?4MPEG?$AA@ 1006d4e0       movie.obj
 0002:000044e8       ??_C@_04PNNGOOBF@?4MPG?$AA@ 1006d4e8       movie.obj
 0002:000044f4       ??_7Amovie@@6B@            1006d4f4       movie.obj
 0002:00004510       __real@416312d000000000    1006d510       movie.obj
 0002:00004518       ??_C@_0O@BFJCFAAK@unknown?5error?$AA@ 1006d518       movie.obj
 0002:00004528       ??_C@_0BP@HNKKJAKI@com?5interface?5not?5initialized?4?$AA@ 1006d528       movie.obj
 0002:00004548       ??_C@_0BK@IEILFLAI@class?5with?5no?5aggregation?$AA@ 1006d548       movie.obj
 0002:00004564       ??_C@_0BE@FKBMKGJG@class?5not?5registred?$AA@ 1006d564       movie.obj
 0002:00004578       __real@4090000000000000    1006d578       movie.obj
 0002:00004580       ??_C@_04CAPFMNON@?4avi?$AA@ 1006d580       movie.obj
 0002:00004588       ??_C@_04FGHMDLHI@?4flc?$AA@ 1006d588       movie.obj
 0002:00004590       ??_C@_04KMJDNDPC@?4fli?$AA@ 1006d590       movie.obj
 0002:00004598       ??_C@_06DODPDCFJ@Amovie?$AA@ 1006d598       movie.obj
 0002:000045a4       ??_7Amsgbox@@6B@           1006d5a4       msgbox.obj
 0002:000045bc       ??_C@_06BLBEJJPN@msgbox?$AA@ 1006d5bc       msgbox.obj
 0002:000045c4       ??_C@_07GGNFLJJ@Amsgbox?$AA@ 1006d5c4       msgbox.obj
 0002:000045d0       ??_7ACI@@6B@               1006d5d0       node.obj
 0002:000045d8       ??_7Anode@@6B@             1006d5d8       node.obj
 0002:000045f0       ??_C@_05JICKFFPC@Anode?$AA@ 1006d5f0       node.obj
 0002:000045f8       ??_C@_0L@EAKPHCEO@mouseLEAVE?$AA@ 1006d5f8       object.obj
 0002:00004604       ??_C@_0L@GMFECMIF@mouseENTER?$AA@ 1006d604       object.obj
 0002:00004610       ??_C@_09PLECLBJD@mouseSTAY?$AA@ 1006d610       object.obj
 0002:0000461c       ??_C@_0L@JBOOHFJA@mouseWHEEL?$AA@ 1006d61c       object.obj
 0002:00004628       ??_C@_0BB@MHDLNFEP@mouseLOSTCAPTURE?$AA@ 1006d628       object.obj
 0002:0000463c       ??_C@_0N@PMBFFKKC@mouseRDBLCLK?$AA@ 1006d63c       object.obj
 0002:0000464c       ??_C@_08GOONDBEN@mouseRUP?$AA@ 1006d64c       object.obj
 0002:00004658       ??_C@_0L@EGPKPMNK@mouseRDOWN?$AA@ 1006d658       object.obj
 0002:00004664       ??_C@_0N@FJIOHJCF@mouseMDBLCLK?$AA@ 1006d664       object.obj
 0002:00004674       ??_C@_08GGJHHGIE@mouseMUP?$AA@ 1006d674       object.obj
 0002:00004680       ??_C@_0L@LEHKEMJE@mouseMDOWN?$AA@ 1006d680       object.obj
 0002:0000468c       ??_C@_0N@JFCEHJLL@mouseLDBLCLK?$AA@ 1006d68c       object.obj
 0002:0000469c       ??_C@_08NOCLBBOB@mouseLUP?$AA@ 1006d69c       object.obj
 0002:000046a8       ??_C@_0L@HPCGJPDB@mouseLDOWN?$AA@ 1006d6a8       object.obj
 0002:000046b4       ??_C@_0M@FMLNGELD@mouseNORMAL?$AA@ 1006d6b4       object.obj
 0002:000046c4       ??_7Aobject@@6B@           1006d6c4       object.obj
 0002:00004730       ??_C@_07JJJANBOO@Aobject?$AA@ 1006d730       object.obj
 0002:0000473c       ??_7AoglBitmap@@6B@        1006d73c       oglbitmap.obj
 0002:00004754       ??_C@_0O@EIFKOMI@an?5AoglBitmap?$AA@ 1006d754       oglbitmap.obj
 0002:00004764       ??_C@_0L@EAMLLLJD@AgloutBack?$AA@ 1006d764       oglbitmap.obj
 0002:00004774       ??_7Apipe@@6B@             1006d774       pipe.obj
 0002:000047c4       ??_C@_05HJLOCIGB@Apipe?$AA@ 1006d7c4       pipe.obj
 0002:000047d0       ??_7Aplugz@@6B@            1006d7d0       plugz.obj
 0002:000047ec       ??_C@_06BDKGNFLG@Aplugz?$AA@ 1006d7ec       plugz.obj
 0002:000047f8       ??_7Aregistry@@6B@         1006d7f8       registry.obj
 0002:0000482c       ??_C@_09LJBOEBDH@Aregistry?$AA@ 1006d82c       registry.obj
 0002:0000483c       ??_7Aresobj@@6B@           1006d83c       resources.obj
 0002:00004860       ??_C@_07FFFCFMCH@Aresobj?$AA@ 1006d860       resources.obj
 0002:0000486c       ??_7Aresource@@6B@         1006d86c       resources.obj
 0002:0000488c       ??_C@_09KNGOCEJB@Aresource?$AA@ 1006d88c       resources.obj
 0002:0000489c       ??_7AscrollBar@@6B@        1006d89c       scrollbar.obj
 0002:0000491c       __real@38d1b717            1006d91c       scrollbar.obj
 0002:00004920       __real@3f1a36e2e0000000    1006d920       scrollbar.obj
 0002:00004928       ??_C@_0L@COFANOJP@AscrollBar?$AA@ 1006d928       scrollbar.obj
 0002:00004938       ??_7Asection@@6B@          1006d938       section.obj
 0002:0000494c       ??_7Asegment@@6B@          1006d94c       segment.obj
 0002:000049c4       ??_C@_08FKPPNIND@Asegment?$AA@ 1006d9c4       segment.obj
 0002:000049d4       ??_7AselButton@@6B@        1006d9d4       selButton.obj
 0002:00004a48       ??_C@_0L@NHPBIEGK@AselButton?$AA@ 1006da48       selButton.obj
 0002:00004a5c       ??_7Aserial@@6B@           1006da5c       serial.obj
 0002:00004aa0       ??_C@_06BBKIFOCE@?1?1?4?1?$CFs?$AA@ 1006daa0       serial.obj
 0002:00004aa8       ??_C@_07LPDCDICA@Aserial?$AA@ 1006daa8       serial.obj
 0002:00004ab4       ??_7Astatic@@6B@           1006dab4       static.obj
 0002:00004b24       ??_C@_07HLAAMGHJ@Astatic?$AA@ 1006db24       static.obj
 0002:00004b34       ??_7Asurface@@6B@          1006db34       surface.obj
 0002:00004ba0       ??_C@_08MNIJMBDA@Asurface?$AA@ 1006dba0       surface.obj
 0002:00004bb0       ??_7Athread@@6B@           1006dbb0       thread.obj
 0002:00004bb8       __real@3f1a36e2eb1c432c    1006dbb8       thread.obj
 0002:00004bc0       __real@408f400000000000    1006dbc0       thread.obj
 0002:00004bcc       ??_7AtitleBar@@6B@         1006dbcc       titleBar.obj
 0002:00004c44       ??_C@_0BA@FNJCCPBO@minimize?5button?$AA@ 1006dc44       titleBar.obj
 0002:00004c54       ??_C@_08OJGMCGAJ@minimize?$AA@ 1006dc54       titleBar.obj
 0002:00004c60       ??_C@_0N@EIAGKOPC@close?5button?$AA@ 1006dc60       titleBar.obj
 0002:00004c70       ??_C@_05LBOHBHFK@close?$AA@ 1006dc70       titleBar.obj
 0002:00004c78       ??_C@_09FMCEDLKP@AtitleBar?$AA@ 1006dc78       titleBar.obj
 0002:00004c8c       ??_7Atool@@6B@             1006dc8c       toolbar.obj
 0002:00004cfc       ??_7AtoolBar@@6B@          1006dcfc       toolbar.obj
 0002:00004d68       ??_C@_08EFJKFCGF@AtoolBar?$AA@ 1006dd68       toolbar.obj
 0002:00004d74       ??_C@_05GPONIOHJ@Atool?$AA@ 1006dd74       toolbar.obj
 0002:00004d84       ??_7Atooltips@@6B@         1006dd84       tooltips.obj
 0002:00004df0       __real@3f333333            1006ddf0       tooltips.obj
 0002:00004df4       ??_C@_09NBNOJEBH@Atooltips?$AA@ 1006ddf4       tooltips.obj
 0002:00004e04       ??_7AtreeView@@6B@         1006de04       treeView.obj
 0002:00004e70       ??_C@_03KHICJKCI@?4?4?4?$AA@ 1006de70       treeView.obj
 0002:00004e74       ??_C@_09HAJPGGJA@AtreeView?$AA@ 1006de74       treeView.obj
 0002:00004e84       ??_7Adroptarget@@6B@       1006de84       window.obj
 0002:00004ea4       ??_7Adropsource@@6B@       1006dea4       window.obj
 0002:00004ebc       ??_7Aidle@@6B@             1006debc       window.obj
 0002:00004ec4       ??_C@_09CHEAOGPA@YoYwindow?$AA@ 1006dec4       window.obj
 0002:00004ed4       ??_7AdropString@@6B@       1006ded4       window.obj
 0002:00004f0c       ??_7Awindow@@6B@           1006df0c       window.obj
 0002:00004f80       ??_C@_0BE@PMAEABGN@UpdateLayeredWindow?$AA@ 1006df80       window.obj
 0002:00004f94       ??_C@_0BL@DALDAJFK@SetLayeredWindowAttributes?$AA@ 1006df94       window.obj
 0002:00004fb0       ??_C@_0L@NDEGIDAG@USER32?4DLL?$AA@ 1006dfb0       window.obj
 0002:00004fbc       ??_C@_07MIGNJIIG@Awindow?$AA@ 1006dfbc       window.obj
 0002:00004fc4       ??_C@_0BD@CPDHIJBA@Unknown?5zlib?5error?$AA@ 1006dfc4       libpng:pngread.obj
 0002:00004fd8       ??_C@_0BD@LBMCPKOE@zlib?5version?5error?$AA@ 1006dfd8       libpng:pngread.obj
 0002:00004fec       ??_C@_0BC@MCPIPOGP@zlib?5memory?5error?$AA@ 1006dfec       libpng:pngread.obj
 0002:00005000       ??_C@_05HBMFIKCP@1?41?43?$AA@ 1006e000       libpng:pngread.obj
 0002:00005008       ??_C@_0DH@LDFDLODO@Incompatible?5libpng?5version?5in?5a@ 1006e008       libpng:pngread.obj
 0002:00005040       ??_C@_0N@JEPAMDDI@zlib?5version?$AA@ 1006e040       libpng:pngread.obj
 0002:00005050       ??_C@_0M@KPLPCJNA@zlib?5memory?$AA@ 1006e050       libpng:pngread.obj
 0002:0000505c       ??_C@_0BJ@LAKDHAPN@Missing?5PLTE?5before?5IDAT?$AA@ 1006e05c       libpng:pngread.obj
 0002:00005078       ??_C@_0BJ@FFGICIDJ@Missing?5IHDR?5before?5IDAT?$AA@ 1006e078       libpng:pngread.obj
 0002:00005094       ??_C@_0CH@NMANOLCN@PNG?5file?5corrupted?5by?5ASCII?5conv@ 1006e094       libpng:pngread.obj
 0002:000050bc       ??_C@_0P@KIMIGLKH@Not?5a?5PNG?5file?$AA@ 1006e0bc       libpng:pngread.obj
 0002:000050cc       ??_C@_0BG@OKGHHCLP@Extra?5compressed?5data?$AA@ 1006e0cc       libpng:pngread.obj
 0002:000050e4       ??_C@_0BE@JMOGBNJB@Decompression?5error?$AA@ 1006e0e4       libpng:pngread.obj
 0002:000050f8       ??_C@_0BG@EIEOOJHA@Not?5enough?5image?5data?$AA@ 1006e0f8       libpng:pngread.obj
 0002:00005110       ??_C@_0CB@KCPNIGFM@Invalid?5attempt?5to?5read?5row?5data@ 1006e110       libpng:pngread.obj
 0002:00005134       ??_C@_0BG@JAHFDNP@Too?5many?5IDAT?8s?5found?$AA@ 1006e134       libpng:pngread.obj
 0002:0000514c       ??_C@_0DC@MHGEAIEM@Width?5too?5large?5for?5libpng?5to?5pr@ 1006e14c       libpng:pngget.obj
 0002:00005180       ??_C@_0CK@BDBGBGO@Can?8t?5discard?5critical?5data?5on?5C@ 1006e180       libpng:pngrtran.obj
 0002:000051ac       ??_C@_0DB@ODHMCKFP@Application?5must?5supply?5a?5known?5@ 1006e1ac       libpng:pngrtran.obj
 0002:000051e0       __real@3fa999999999999a    1006e1e0       libpng:pngrtran.obj
 0002:000051e8       ??_C@_0CP@HEBPIFPB@ignoring?5out?5of?5range?5rgb_to_gra@ 1006e1e8       libpng:pngrtran.obj
 0002:00005218       __real@40efffe000000000    1006e218       libpng:pngrtran.obj
 0002:00005220       __real@41f0000000000000    1006e220       libpng:pngrtran.obj
 0002:00005228       __real@3eb0c6f7a0b5ed8d    1006e228       libpng:pngrtran.obj
 0002:00005230       ??_C@_0CC@JEAKIKEF@png_do_dither?5returned?5rowbytes?$DN@ 1006e230       libpng:pngrtran.obj
 0002:00005254       ??_C@_0CH@DAMIMNHG@png_do_rgb_to_gray?5found?5nongray@ 1006e254       libpng:pngrtran.obj
 0002:0000527c       ??_C@_0CF@HEFPFJHN@NULL?5row?5buffer?5for?5row?5?$CFld?0?5pas@ 1006e27c       libpng:pngrtran.obj
 0002:000052d4       ??_C@_0DE@EGBLPLND@?6?5libpng?5version?51?40?45?5?9?5October@ 1006e2d4       libpng:png.obj
 0002:00005308       ??_C@_0CC@CMIPDMOP@Too?5many?5bytes?5for?5PNG?5signature@ 1006e308       libpng:png.obj
 0002:0000532c       ??_C@_0BO@MFMFDHDO@?$CFd?5?$CFs?5?$CFd?5?$CF02d?3?$CF02d?3?$CF02d?5?$CL0000?$AA@ 1006e32c       libpng:png.obj
 0002:00005350       ??_C@_0MG@PPOOLDBG@?6?5libpng?5version?51?40?45?5?9?5October@ 1006e350       libpng:png.obj
 0002:00005418       ??_C@_0BL@GPADEDKN@Call?5to?5NULL?5read?5function?$AA@ 1006e418       libpng:pngrio.obj
 0002:00005434       ??_C@_0L@BAFDDAPG@Read?5Error?$AA@ 1006e434       libpng:pngrio.obj
 0002:00005440       ??_C@_0DC@EOBOCMJO@same?5structure?4?5?5Resetting?5write@ 1006e440       libpng:pngrio.obj
 0002:00005478       ??_C@_0EB@NJKELLKM@It?8s?5an?5error?5to?5set?5both?5read_d@ 1006e478       libpng:pngrio.obj
 0002:000054bc       ??_C@_0O@BPALFKAJ@Out?5of?5Memory?$AA@ 1006e4bc       libpng:pngmem.obj
 0002:000054dc       ??_C@_0BC@MFANGAPN@libpng?5error?3?5?$CFs?6?$AA@ 1006e4dc       libpng:pngerror.obj
 0002:000054f0       ??_C@_0BE@LNAJCNP@libpng?5warning?3?5?$CFs?6?$AA@ 1006e4f0       libpng:pngerror.obj
 0002:00005504       ??_C@_0BD@GFBMLKLH@invalid?5chunk?5type?$AA@ 1006e504       libpng:pngrutil.obj
 0002:00005518       ??_C@_0CC@FECADCN@Ignoring?5bad?5adaptive?5filter?5typ@ 1006e518       libpng:pngrutil.obj
 0002:0000553c       ??_C@_09BJGMGMHA@CRC?5error?$AA@ 1006e53c       libpng:pngrutil.obj
 0002:00005548       ??_C@_0BO@KOOEGEDO@Unknown?5filter?5method?5in?5IHDR?$AA@ 1006e548       libpng:pngrutil.obj
 0002:00005568       ??_C@_0CD@DDOOCEDP@Unknown?5compression?5method?5in?5IH@ 1006e568       libpng:pngrutil.obj
 0002:0000558c       ??_C@_0CB@EMHJMLOA@Unknown?5interlace?5method?5in?5IHDR@ 1006e58c       libpng:pngrutil.obj
 0002:000055b0       ??_C@_0DB@FGMBGHOJ@Invalid?5color?5type?1bit?5depth?5com@ 1006e5b0       libpng:pngrutil.obj
 0002:000055e4       ??_C@_0BL@KPIFPGMP@Invalid?5color?5type?5in?5IHDR?$AA@ 1006e5e4       libpng:pngrutil.obj
 0002:00005600       ??_C@_0BK@OAKOLNFJ@Invalid?5bit?5depth?5in?5IHDR?$AA@ 1006e600       libpng:pngrutil.obj
 0002:0000561c       ??_C@_0BL@PKEOJJBA@Invalid?5image?5size?5in?5IHDR?$AA@ 1006e61c       libpng:pngrutil.obj
 0002:00005638       ??_C@_0BD@CLODLFAN@Invalid?5IHDR?5chunk?$AA@ 1006e638       libpng:pngrutil.obj
 0002:0000564c       ??_C@_0BC@KBAKFAAH@Out?5of?5place?5IHDR?$AA@ 1006e64c       libpng:pngrutil.obj
 0002:00005660       ??_C@_0CH@GNNEJFAH@Truncating?5incorrect?5tRNS?5chunk?5@ 1006e660       libpng:pngrutil.obj
 0002:00005688       ??_C@_0BG@HHEHMEJK@Invalid?5palette?5chunk?$AA@ 1006e688       libpng:pngrutil.obj
 0002:000056a0       ??_C@_0BF@PMKDIIMG@Duplicate?5PLTE?5chunk?$AA@ 1006e6a0       libpng:pngrutil.obj
 0002:000056b8       ??_C@_0BI@GEKPHPN@Invalid?5PLTE?5after?5IDAT?$AA@ 1006e6b8       libpng:pngrutil.obj
 0002:000056d0       ??_C@_0BJ@LEBILHKO@Missing?5IHDR?5before?5PLTE?$AA@ 1006e6d0       libpng:pngrutil.obj
 0002:000056ec       ??_C@_0BM@PFCLLCBO@Incorrect?5IEND?5chunk?5length?$AA@ 1006e6ec       libpng:pngrutil.obj
 0002:00005708       ??_C@_0BB@BLPFHNNN@No?5image?5in?5file?$AA@ 1006e708       libpng:pngrutil.obj
 0002:00005720       __real@40f86a0000000000    1006e720       libpng:pngrutil.obj
 0002:00005728       ??_C@_0O@NPJDMCCE@igamma?5?$DN?5?$CFlu?6?$AA@ 1006e728       libpng:pngrutil.obj
 0002:00005738       ??_C@_0DI@KINMKNNO@Ignoring?5incorrect?5gAMA?5value?5wh@ 1006e738       libpng:pngrutil.obj
 0002:00005770       __real@407f400000000000    1006e770       libpng:pngrutil.obj
 0002:00005778       __real@40e631e000000000    1006e778       libpng:pngrutil.obj
 0002:00005780       ??_C@_0BF@IMCFKHDJ@Duplicate?5gAMA?5chunk?$AA@ 1006e780       libpng:pngrutil.obj
 0002:00005798       ??_C@_0BI@JEEHFLME@Out?5of?5place?5gAMA?5chunk?$AA@ 1006e798       libpng:pngrutil.obj
 0002:000057b0       ??_C@_0BI@POPIJBNN@Invalid?5gAMA?5after?5IDAT?$AA@ 1006e7b0       libpng:pngrutil.obj
 0002:000057c8       ??_C@_0BM@NIAHDFBB@Incorrect?5gAMA?5chunk?5length?$AA@ 1006e7c8       libpng:pngrutil.obj
 0002:000057e4       ??_C@_0BJ@CCOIFGBO@Missing?5IHDR?5before?5gAMA?$AA@ 1006e7e4       libpng:pngrutil.obj
 0002:00005800       ??_C@_0BF@BAIKMFDA@Duplicate?5sBIT?5chunk?$AA@ 1006e800       libpng:pngrutil.obj
 0002:00005818       ??_C@_0BI@IOIDJMN@Out?5of?5place?5sBIT?5chunk?$AA@ 1006e818       libpng:pngrutil.obj
 0002:00005830       ??_C@_0BI@GNBHBDGP@Invalid?5sBIT?5after?5IDAT?$AA@ 1006e830       libpng:pngrutil.obj
 0002:00005848       ??_C@_0BM@NECIIMI@Incorrect?5sBIT?5chunk?5length?$AA@ 1006e848       libpng:pngrutil.obj
 0002:00005864       ??_C@_0BJ@JFIBIGHK@Missing?5IHDR?5before?5sBIT?$AA@ 1006e864       libpng:pngrutil.obj
 0002:00005880       ??_C@_0BJ@FAHLKGEB@Invalid?5cHRM?5white?5point?$AA@ 1006e880       libpng:pngrutil.obj
 0002:0000589c       ??_C@_0BH@MNPFDHMO@Invalid?5cHRM?5red?5point?$AA@ 1006e89c       libpng:pngrutil.obj
 0002:000058b4       ??_C@_0BJ@OMNHHNBI@Invalid?5cHRM?5green?5point?$AA@ 1006e8b4       libpng:pngrutil.obj
 0002:000058d0       ??_C@_0BI@GNBEGBIO@Invalid?5cHRM?5blue?5point?$AA@ 1006e8d0       libpng:pngrutil.obj
 0002:000058e8       ??_C@_0BM@IACKJHOF@gx?$DN?$CFf?0?5gy?$DN?$CFf?0?5bx?$DN?$CFf?0?5by?$DN?$CFf?6?$AA@ 1006e8e8       libpng:pngrutil.obj
 0002:00005904       ??_C@_0BM@NBPNPEHL@wx?$DN?$CFf?0?5wy?$DN?$CFf?0?5rx?$DN?$CFf?0?5ry?$DN?$CFf?6?$AA@ 1006e904       libpng:pngrutil.obj
 0002:00005920       ??_C@_0DI@MIMDNNAG@Ignoring?5incorrect?5cHRM?5value?5wh@ 1006e920       libpng:pngrutil.obj
 0002:00005958       __real@3faeb851e0000000    1006e958       libpng:pngrutil.obj
 0002:00005960       __real@3fc3333340000000    1006e960       libpng:pngrutil.obj
 0002:00005968       __real@3fe3333340000000    1006e968       libpng:pngrutil.obj
 0002:00005970       __real@3fd3333340000000    1006e970       libpng:pngrutil.obj
 0002:00005978       __real@3fd51eb860000000    1006e978       libpng:pngrutil.obj
 0002:00005980       __real@3fe47ae140000000    1006e980       libpng:pngrutil.obj
 0002:00005988       __real@3fd50e5600000000    1006e988       libpng:pngrutil.obj
 0002:00005990       __real@3f50624de0000000    1006e990       libpng:pngrutil.obj
 0002:00005998       __real@3fd40346e0000000    1006e998       libpng:pngrutil.obj
 0002:000059a0       __real@3fe99999a0000000    1006e9a0       libpng:pngrutil.obj
 0002:000059a8       __real@3fe999999999999a    1006e9a8       libpng:pngrutil.obj
 0002:000059b0       ??_C@_0BF@OEDPGHJO@Duplicate?5cHRM?5chunk?$AA@ 1006e9b0       libpng:pngrutil.obj
 0002:000059c8       ??_C@_0BJ@PEGEEMNB@Missing?5PLTE?5before?5cHRM?$AA@ 1006e9c8       libpng:pngrutil.obj
 0002:000059e4       ??_C@_0BI@PGCHPLFE@Invalid?5cHRM?5after?5IDAT?$AA@ 1006e9e4       libpng:pngrutil.obj
 0002:000059fc       ??_C@_0BM@JPCBJGIK@Incorrect?5cHRM?5chunk?5length?$AA@ 1006e9fc       libpng:pngrutil.obj
 0002:00005a18       ??_C@_09HOJJCFPE@gamma?$DN?$CFf?6?$AA@ 1006ea18       libpng:pngrutil.obj
 0002:00005a24       ??_C@_0BE@CEGOJHBA@Unknown?5sRGB?5intent?$AA@ 1006ea24       libpng:pngrutil.obj
 0002:00005a38       ??_C@_0BF@EFDCKHOG@Duplicate?5sRGB?5chunk?$AA@ 1006ea38       libpng:pngrutil.obj
 0002:00005a50       ??_C@_0BI@FNFAFLBL@Out?5of?5place?5sRGB?5chunk?$AA@ 1006ea50       libpng:pngrutil.obj
 0002:00005a68       ??_C@_0BI@PGAMKAKH@Invalid?5sRGB?5after?5IDAT?$AA@ 1006ea68       libpng:pngrutil.obj
 0002:00005a80       ??_C@_0BM@FMAJKMKD@Incorrect?5sRGB?5chunk?5length?$AA@ 1006ea80       libpng:pngrutil.obj
 0002:00005a9c       ??_C@_0BJ@NDJOEJDI@Missing?5IHDR?5before?5sRGB?$AA@ 1006ea9c       libpng:pngrutil.obj
 0002:00005ab8       ??_C@_0CK@JMGMOHJA@tRNS?5chunk?5not?5allowed?5with?5alph@ 1006eab8       libpng:pngrutil.obj
 0002:00005ae4       ??_C@_0BM@JNMFOMLO@Incorrect?5tRNS?5chunk?5length?$AA@ 1006eae4       libpng:pngrutil.obj
 0002:00005b00       ??_C@_0BF@HALLDFIL@Duplicate?5tRNS?5chunk?$AA@ 1006eb00       libpng:pngrutil.obj
 0002:00005b18       ??_C@_0BI@MMDCNIMN@Invalid?5tRNS?5after?5IDAT?$AA@ 1006eb18       libpng:pngrutil.obj
 0002:00005b30       ??_C@_0BH@JJNMONHM@Zero?5length?5tRNS?5chunk?$AA@ 1006eb30       libpng:pngrutil.obj
 0002:00005b48       ??_C@_0BJ@NIHNNFHD@Missing?5PLTE?5before?5tRNS?$AA@ 1006eb48       libpng:pngrutil.obj
 0002:00005b64       ??_C@_0BJ@DNLGINLH@Missing?5IHDR?5before?5tRNS?$AA@ 1006eb64       libpng:pngrutil.obj
 0002:00005b80       ??_C@_0CB@NACPDIGJ@Incorrect?5bKGD?5chunk?5index?5value@ 1006eb80       libpng:pngrutil.obj
 0002:00005ba4       ??_C@_0BM@MJOFIPAI@Incorrect?5bKGD?5chunk?5length?$AA@ 1006eba4       libpng:pngrutil.obj
 0002:00005bc0       ??_C@_0BF@DHJOBPEI@Duplicate?5bKGD?5chunk?$AA@ 1006ebc0       libpng:pngrutil.obj
 0002:00005bd8       ??_C@_0BJ@BAJOBAFN@Missing?5PLTE?5before?5bKGD?$AA@ 1006ebd8       libpng:pngrutil.obj
 0002:00005bf4       ??_C@_0BI@CMLGFIFF@Invalid?5bKGD?5after?5IDAT?$AA@ 1006ebf4       libpng:pngrutil.obj
 0002:00005c0c       ??_C@_0BJ@PFFFEIJJ@Missing?5IHDR?5before?5bKGD?$AA@ 1006ec0c       libpng:pngrutil.obj
 0002:00005c28       ??_C@_0BF@FMFDLFKH@Duplicate?5hIST?5chunk?$AA@ 1006ec28       libpng:pngrutil.obj
 0002:00005c40       ??_C@_0BJ@KBMKNJIK@Missing?5PLTE?5before?5hIST?$AA@ 1006ec40       libpng:pngrutil.obj
 0002:00005c5c       ??_C@_0BI@LLJKEGEF@Invalid?5hIST?5after?5IDAT?$AA@ 1006ec5c       libpng:pngrutil.obj
 0002:00005c74       ??_C@_0BM@HJCIDHBG@Incorrect?5hIST?5chunk?5length?$AA@ 1006ec74       libpng:pngrutil.obj
 0002:00005c90       ??_C@_0BJ@EEABIBEO@Missing?5IHDR?5before?5hIST?$AA@ 1006ec90       libpng:pngrutil.obj
 0002:00005cac       ??_C@_0BF@DIEPHIJA@Duplicate?5pHYS?5chunk?$AA@ 1006ecac       libpng:pngrutil.obj
 0002:00005cc4       ??_C@_0BI@DIBBOALP@Invalid?5pHYS?5after?5IDAT?$AA@ 1006ecc4       libpng:pngrutil.obj
 0002:00005cdc       ??_C@_0BM@CAALIFOJ@Incorrect?5pHYs?5chunk?5length?$AA@ 1006ecdc       libpng:pngrutil.obj
 0002:00005cf8       ??_C@_0BJ@OOPLCJHJ@Missing?5IHDR?5before?5pHYS?$AA@ 1006ecf8       libpng:pngrutil.obj
 0002:00005d14       ??_C@_0BF@JBIHJHNI@Duplicate?5oFFs?5chunk?$AA@ 1006ed14       libpng:pngrutil.obj
 0002:00005d2c       ??_C@_0BI@DOPHGCAB@Invalid?5oFFs?5after?5IDAT?$AA@ 1006ed2c       libpng:pngrutil.obj
 0002:00005d44       ??_C@_0BM@NBDONMKL@Incorrect?5oFFs?5chunk?5length?$AA@ 1006ed44       libpng:pngrutil.obj
 0002:00005d60       ??_C@_0BJ@GOGKJOPG@Missing?5IHDR?5before?5oFFs?$AA@ 1006ed60       libpng:pngrutil.obj
 0002:00005d7c       ??_C@_0CK@GBCGFDCK@Unrecognized?5equation?5type?5for?5p@ 1006ed7c       libpng:pngrutil.obj
 0002:00005da8       ??_C@_0CK@ONFOCIAG@Invalid?5pCAL?5parameters?5for?5equa@ 1006eda8       libpng:pngrutil.obj
 0002:00005dd4       ??_C@_0BC@KNEPBMNA@Invalid?5pCAL?5data?$AA@ 1006edd4       libpng:pngrutil.obj
 0002:00005de8       ??_C@_0BF@HCCMEAIJ@Duplicate?5pCAL?5chunk?$AA@ 1006ede8       libpng:pngrutil.obj
 0002:00005e00       ??_C@_0BI@CAHJBHPE@Invalid?5pCAL?5after?5IDAT?$AA@ 1006ee00       libpng:pngrutil.obj
 0002:00005e18       ??_C@_0BJ@OGJFFCCO@Missing?5IHDR?5before?5pCAL?$AA@ 1006ee18       libpng:pngrutil.obj
 0002:00005e34       ??_C@_0BF@CMKMELPN@Duplicate?5tIME?5chunk?$AA@ 1006ee34       libpng:pngrutil.obj
 0002:00005e4c       ??_C@_0BM@HAEOJOJG@Incorrect?5tIME?5chunk?5length?$AA@ 1006ee4c       libpng:pngrutil.obj
 0002:00005e68       ??_C@_0BI@DEMOLHAA@Out?5of?5place?5tIME?5chunk?$AA@ 1006ee68       libpng:pngrutil.obj
 0002:00005e80       ??_C@_0BJ@DCBGIPDG@Missing?5IHDR?5before?5tEXt?$AA@ 1006ee80       libpng:pngrutil.obj
 0002:00005e9c       ??_C@_0CB@MCDBJLEK@Unknown?5zTXt?5compression?5type?5?$CFd@ 1006ee9c       libpng:pngrutil.obj
 0002:00005ec0       ??_C@_0BH@OKNNOGIJ@Zero?5length?5zTXt?5chunk?$AA@ 1006eec0       libpng:pngrutil.obj
 0002:00005ed8       ??_C@_0BJ@GFIDABKN@Missing?5IHDR?5before?5zTXt?$AA@ 1006eed8       libpng:pngrutil.obj
 0002:00005ef4       ??_C@_0BH@OMJPKJPP@unknown?5critical?5chunk?$AA@ 1006eef4       libpng:pngrutil.obj
 0002:00005f0c       ??_C@_0BH@KJLLHDND@Extra?5compression?5data?$AA@ 1006ef0c       libpng:pngrutil.obj
 0002:00005f24       ??_C@_0BE@JLEKBIKH@Decompression?5Error?$AA@ 1006ef24       libpng:pngrutil.obj
 0002:00005f38       ??_C@_0DP@GHHOJINM@Width?5too?5large?5to?5process?5image@ 1006ef38       libpng:pngset.obj
 0002:00005f78       __real@3ee8bac7            1006ef78       libpng:pngset.obj
 0002:00006380       _IID_IVMRImageCompositor9  1006f380       amstrmid:strmiids.obj
 0002:00006390       _IID_IVMRDeinterlaceControl9 1006f390       amstrmid:strmiids.obj
 0002:000063a0       _IID_IVMRMonitorConfig9    1006f3a0       amstrmid:strmiids.obj
 0002:000063b0       _IID_IVMRAspectRatioControl9 1006f3b0       amstrmid:strmiids.obj
 0002:000063c0       _IID_IVMRFilterConfig9     1006f3c0       amstrmid:strmiids.obj
 0002:000063d0       _IID_IVMRVideoStreamControl9 1006f3d0       amstrmid:strmiids.obj
 0002:000063e0       _IID_IVMRImagePresenterConfig9 1006f3e0       amstrmid:strmiids.obj
 0002:000063f0       _IID_IVMRSurface9          1006f3f0       amstrmid:strmiids.obj
 0002:00006400       _IID_IVMRMixerBitmap9      1006f400       amstrmid:strmiids.obj
 0002:00006410       _IID_IVMRMixerControl9     1006f410       amstrmid:strmiids.obj
 0002:00006420       _IID_IVMRWindowlessControl9 1006f420       amstrmid:strmiids.obj
 0002:00006430       _IID_IVMRSurfaceAllocatorNotify9 1006f430       amstrmid:strmiids.obj
 0002:00006440       _IID_IVMRSurfaceAllocator9 1006f440       amstrmid:strmiids.obj
 0002:00006450       _IID_IVMRImagePresenter9   1006f450       amstrmid:strmiids.obj
 0002:00006460       _IID_IMixerOCX             1006f460       amstrmid:strmiids.obj
 0002:00006470       _IID_IMixerOCXNotify       1006f470       amstrmid:strmiids.obj
 0002:00006480       _CLSID_XDSCodec            1006f480       amstrmid:strmiids.obj
 0002:00006490       _DIID_IXDSCodecEvents      1006f490       amstrmid:strmiids.obj
 0002:000064a0       _IID_IXDSCodec             1006f4a0       amstrmid:strmiids.obj
 0002:000064b0       _CLSID_DTFilter            1006f4b0       amstrmid:strmiids.obj
 0002:000064c0       _DIID_IDTFilterEvents      1006f4c0       amstrmid:strmiids.obj
 0002:000064d0       _IID_IDTFilter             1006f4d0       amstrmid:strmiids.obj
 0002:000064e0       _CLSID_ETFilter            1006f4e0       amstrmid:strmiids.obj
 0002:000064f0       _DIID_IETFilterEvents      1006f4f0       amstrmid:strmiids.obj
 0002:00006500       _IID_IETFilter             1006f500       amstrmid:strmiids.obj
 0002:00006510       _LIBID_EncDec              1006f510       amstrmid:strmiids.obj
 0002:00006520       _IID_IXDSCodecConfig       1006f520       amstrmid:strmiids.obj
 0002:00006530       _IID_IDTFilterConfig       1006f530       amstrmid:strmiids.obj
 0002:00006540       _IID_IETFilterConfig       1006f540       amstrmid:strmiids.obj
 0002:00006550       _CLSID_EvalRat             1006f550       amstrmid:strmiids.obj
 0002:00006560       _CLSID_XDSToRat            1006f560       amstrmid:strmiids.obj
 0002:00006570       _LIBID_TVRATINGSLib        1006f570       amstrmid:strmiids.obj
 0002:00006580       _IID_IEvalRat              1006f580       amstrmid:strmiids.obj
 0002:00006590       _IID_IXDSToRat             1006f590       amstrmid:strmiids.obj
 0002:000065a0       _IID_IAMVideoAccelerator   1006f5a0       amstrmid:strmiids.obj
 0002:000065b0       _IID_IAMVideoAcceleratorNotify 1006f5b0       amstrmid:strmiids.obj
 0002:000065c0       _IID_IStreamBufferMediaSeeking 1006f5c0       amstrmid:strmiids.obj
 0002:000065d0       _IID_IStreamBufferConfigure 1006f5d0       amstrmid:strmiids.obj
 0002:000065e0       _IID_IEnumStreamBufferRecordingAttrib 1006f5e0       amstrmid:strmiids.obj
 0002:000065f0       _IID_IStreamBufferRecordingAttribute 1006f5f0       amstrmid:strmiids.obj
 0002:00006600       _IID_IStreamBufferRecComp  1006f600       amstrmid:strmiids.obj
 0002:00006610       _IID_IStreamBufferRecordControl 1006f610       amstrmid:strmiids.obj
 0002:00006620       _IID_IStreamBufferSource   1006f620       amstrmid:strmiids.obj
 0002:00006630       _IID_IStreamBufferSink     1006f630       amstrmid:strmiids.obj
 0002:00006640       _IID_IStreamBufferInitialize 1006f640       amstrmid:strmiids.obj
 0002:00006650       _CLSID_TIFLoad             1006f650       amstrmid:strmiids.obj
 0002:00006660       _LIBID_PSISLOADLib         1006f660       amstrmid:strmiids.obj
 0002:00006670       _IID_IGuideDataLoader      1006f670       amstrmid:strmiids.obj
 0002:00006680       _IID_IGuideData            1006f680       amstrmid:strmiids.obj
 0002:00006690       _IID_IEnumTuneRequests     1006f690       amstrmid:strmiids.obj
 0002:000066a0       _IID_IEnumGuideDataProperties 1006f6a0       amstrmid:strmiids.obj
 0002:000066b0       _IID_IGuideDataProperty    1006f6b0       amstrmid:strmiids.obj
 0002:000066c0       _IID_IGuideDataEvent       1006f6c0       amstrmid:strmiids.obj
 0002:000066d0       _IID_ITuneRequestInfo      1006f6d0       amstrmid:strmiids.obj
 0002:000066e0       _IID_IMPEG2_TIF_CONTROL    1006f6e0       amstrmid:strmiids.obj
 0002:000066f0       _IID_IBDA_TIF_REGISTRATION 1006f6f0       amstrmid:strmiids.obj
 0002:00006700       _IID_IFrequencyMap         1006f700       amstrmid:strmiids.obj
 0002:00006710       _IID_IMPEG2PIDMap          1006f710       amstrmid:strmiids.obj
 0002:00006720       _IID_IEnumPIDMap           1006f720       amstrmid:strmiids.obj
 0002:00006730       _IID_IBDA_IPSinkInfo       1006f730       amstrmid:strmiids.obj
 0002:00006740       _IID_IBDA_IPSinkControl    1006f740       amstrmid:strmiids.obj
 0002:00006750       _IID_IBDA_DigitalDemodulator 1006f750       amstrmid:strmiids.obj
 0002:00006760       _IID_IBDA_AutoDemodulate   1006f760       amstrmid:strmiids.obj
 0002:00006770       _IID_IBDA_LNBInfo          1006f770       amstrmid:strmiids.obj
 0002:00006780       _IID_IBDA_FrequencyFilter  1006f780       amstrmid:strmiids.obj
 0002:00006790       _IID_IBDA_NullTransform    1006f790       amstrmid:strmiids.obj
 0002:000067a0       _IID_IBDA_VoidTransform    1006f7a0       amstrmid:strmiids.obj
 0002:000067b0       _IID_IBDA_Topology         1006f7b0       amstrmid:strmiids.obj
 0002:000067c0       _IID_IBDA_SignalStatistics 1006f7c0       amstrmid:strmiids.obj
 0002:000067d0       _IID_IBDA_SignalProperties 1006f7d0       amstrmid:strmiids.obj
 0002:000067e0       _IID_IBDA_PinControl       1006f7e0       amstrmid:strmiids.obj
 0002:000067f0       _IID_IBDA_DeviceControl    1006f7f0       amstrmid:strmiids.obj
 0002:00006800       _IID_IBDA_IPV6Filter       1006f800       amstrmid:strmiids.obj
 0002:00006810       _IID_IBDA_IPV4Filter       1006f810       amstrmid:strmiids.obj
 0002:00006820       _IID_IBDA_EthernetFilter   1006f820       amstrmid:strmiids.obj
 0002:00006830       _IID_IBDA_NetworkProvider  1006f830       amstrmid:strmiids.obj
 0002:00006840       _CLSID_MSVidOutput         1006f840       amstrmid:strmiids.obj
 0002:00006850       _CLSID_MSVidFeature        1006f850       amstrmid:strmiids.obj
 0002:00006860       _CLSID_MSVidVideoPlaybackDevice 1006f860       amstrmid:strmiids.obj
 0002:00006870       _CLSID_MSVidVideoInputDevice 1006f870       amstrmid:strmiids.obj
 0002:00006880       _CLSID_MSVidInputDevice    1006f880       amstrmid:strmiids.obj
 0002:00006890       _CLSID_MSVidDevice         1006f890       amstrmid:strmiids.obj
 0002:000068a0       _CLSID_MSVidRect           1006f8a0       amstrmid:strmiids.obj
 0002:000068b0       _CLSID_MSVidStreamBufferRecordingControl 1006f8b0       amstrmid:strmiids.obj
 0002:000068c0       _CLSID_MSEventBinder       1006f8c0       amstrmid:strmiids.obj
 0002:000068d0       _CLSID_MSVidSBESourceToCC  1006f8d0       amstrmid:strmiids.obj
 0002:000068e0       _CLSID_MSVidAnalogCaptureToXDS 1006f8e0       amstrmid:strmiids.obj
 0002:000068f0       _CLSID_MSVidStreamBufferSourceToVideoRenderer 1006f8f0       amstrmid:strmiids.obj
 0002:00006900       _CLSID_MSVidAnalogTVToEncoder 1006f900       amstrmid:strmiids.obj
 0002:00006910       _CLSID_MSVidFilePlaybackToAudioRenderer 1006f910       amstrmid:strmiids.obj
 0002:00006920       _CLSID_MSVidFilePlaybackToVideoRenderer 1006f920       amstrmid:strmiids.obj
 0002:00006930       _CLSID_MSVidEncoderToStreamBufferSink 1006f930       amstrmid:strmiids.obj
 0002:00006940       _CLSID_MSVidDataServicesToXDS 1006f940       amstrmid:strmiids.obj
 0002:00006950       _CLSID_MSVidDataServicesToStreamBufferSink 1006f950       amstrmid:strmiids.obj
 0002:00006960       _CLSID_MSVidDigitalCaptureToStreamBufferSink 1006f960       amstrmid:strmiids.obj
 0002:00006970       _CLSID_MSVidAnalogCaptureToStreamBufferSink 1006f970       amstrmid:strmiids.obj
 0002:00006980       _CLSID_MSVidMPEG2DecoderToClosedCaptioning 1006f980       amstrmid:strmiids.obj
 0002:00006990       _CLSID_MSVidWebDVDToAudioRenderer 1006f990       amstrmid:strmiids.obj
 0002:000069a0       _CLSID_MSVidWebDVDToVideoRenderer 1006f9a0       amstrmid:strmiids.obj
 0002:000069b0       _CLSID_MSVidAnalogCaptureToDataServices 1006f9b0       amstrmid:strmiids.obj
 0002:000069c0       _CLSID_MSVidAnalogCaptureToOverlayMixer 1006f9c0       amstrmid:strmiids.obj
 0002:000069d0       _CLSID_MSVidGenericComposite 1006f9d0       amstrmid:strmiids.obj
 0002:000069e0       _CLSID_MSVidFeatures       1006f9e0       amstrmid:strmiids.obj
 0002:000069f0       _CLSID_MSVidAudioRendererDevices 1006f9f0       amstrmid:strmiids.obj
 0002:00006a00       _CLSID_MSVidVideoRendererDevices 1006fa00       amstrmid:strmiids.obj
 0002:00006a10       _CLSID_MSVidOutputDevices  1006fa10       amstrmid:strmiids.obj
 0002:00006a20       _CLSID_MSVidInputDevices   1006fa20       amstrmid:strmiids.obj
 0002:00006a30       _CLSID_MSVidCtl            1006fa30       amstrmid:strmiids.obj
 0002:00006a40       _CLSID_MSVidClosedCaptioning 1006fa40       amstrmid:strmiids.obj
 0002:00006a50       _CLSID_MSVidXDS            1006fa50       amstrmid:strmiids.obj
 0002:00006a60       _CLSID_MSVidEncoder        1006fa60       amstrmid:strmiids.obj
 0002:00006a70       _CLSID_MSVidDataServices   1006fa70       amstrmid:strmiids.obj
 0002:00006a80       _CLSID_MSVidStreamBufferSource 1006fa80       amstrmid:strmiids.obj
 0002:00006a90       _CLSID_MSVidStreamBufferSink 1006fa90       amstrmid:strmiids.obj
 0002:00006aa0       _CLSID_MSVidAudioRenderer  1006faa0       amstrmid:strmiids.obj
 0002:00006ab0       _CLSID_MSVidVideoRenderer  1006fab0       amstrmid:strmiids.obj
 0002:00006ac0       _CLSID_MSVidWebDVDAdm      1006fac0       amstrmid:strmiids.obj
 0002:00006ad0       _CLSID_MSVidWebDVD         1006fad0       amstrmid:strmiids.obj
 0002:00006ae0       _CLSID_MSVidFilePlaybackDevice 1006fae0       amstrmid:strmiids.obj
 0002:00006af0       _CLSID_MSVidBDATunerDevice 1006faf0       amstrmid:strmiids.obj
 0002:00006b00       _CLSID_MSVidAnalogTunerDevice 1006fb00       amstrmid:strmiids.obj
 0002:00006b10       _DIID__IMSVidCtlEvents     1006fb10       amstrmid:strmiids.obj
 0002:00006b20       _LIBID_MSVidCtlLib         1006fb20       amstrmid:strmiids.obj
 0002:00006b30       _IID_IMSEventBinder        1006fb30       amstrmid:strmiids.obj
 0002:00006b40       _IID_IMSVidCtl             1006fb40       amstrmid:strmiids.obj
 0002:00006b50       _IID_IMSVidFeatures        1006fb50       amstrmid:strmiids.obj
 0002:00006b60       _IID_IMSVidAudioRendererDevices 1006fb60       amstrmid:strmiids.obj
 0002:00006b70       _IID_IMSVidVideoRendererDevices 1006fb70       amstrmid:strmiids.obj
 0002:00006b80       _IID_IMSVidOutputDevices   1006fb80       amstrmid:strmiids.obj
 0002:00006b90       _IID_IMSVidInputDevices    1006fb90       amstrmid:strmiids.obj
 0002:00006ba0       _IID_IMSVidAudioRendererEvent 1006fba0       amstrmid:strmiids.obj
 0002:00006bb0       _IID_IMSVidAudioRenderer   1006fbb0       amstrmid:strmiids.obj
 0002:00006bc0       _IID_IMSVidVideoRendererEvent2 1006fbc0       amstrmid:strmiids.obj
 0002:00006bd0       _IID_IMSVidVideoRenderer2  1006fbd0       amstrmid:strmiids.obj
 0002:00006be0       _IID_IMSVidStreamBufferSourceEvent 1006fbe0       amstrmid:strmiids.obj
 0002:00006bf0       _IID_IMSVidStreamBufferSource 1006fbf0       amstrmid:strmiids.obj
 0002:00006c00       _IID_IMSVidStreamBufferSinkEvent 1006fc00       amstrmid:strmiids.obj
 0002:00006c10       _IID_IMSVidStreamBufferSink 1006fc10       amstrmid:strmiids.obj
 0002:00006c20       _IID_IMSVidStreamBufferRecordingControl 1006fc20       amstrmid:strmiids.obj
 0002:00006c30       _IID_IMSVidVideoRendererEvent 1006fc30       amstrmid:strmiids.obj
 0002:00006c40       _IID_IMSVidVideoRenderer   1006fc40       amstrmid:strmiids.obj
 0002:00006c50       _IID_IMSVidClosedCaptioning2 1006fc50       amstrmid:strmiids.obj
 0002:00006c60       _IID_IMSVidClosedCaptioning 1006fc60       amstrmid:strmiids.obj
 0002:00006c70       _IID_IMSVidDataServicesEvent 1006fc70       amstrmid:strmiids.obj
 0002:00006c80       _IID_IMSVidDataServices    1006fc80       amstrmid:strmiids.obj
 0002:00006c90       _IID_IMSVidXDS             1006fc90       amstrmid:strmiids.obj
 0002:00006ca0       _IID_IMSVidEncoder         1006fca0       amstrmid:strmiids.obj
 0002:00006cb0       _IID_IMSVidFeatureEvent    1006fcb0       amstrmid:strmiids.obj
 0002:00006cc0       _IID_IMSVidFeature         1006fcc0       amstrmid:strmiids.obj
 0002:00006cd0       _IID_IMSVidOutputDeviceEvent 1006fcd0       amstrmid:strmiids.obj
 0002:00006ce0       _IID_IMSVidOutputDevice    1006fce0       amstrmid:strmiids.obj
 0002:00006cf0       _IID_IMSVidWebDVDAdm       1006fcf0       amstrmid:strmiids.obj
 0002:00006d00       _IID_IMSVidWebDVDEvent     1006fd00       amstrmid:strmiids.obj
 0002:00006d10       _IID_IMSVidWebDVD          1006fd10       amstrmid:strmiids.obj
 0002:00006d20       _IID_IMSVidFilePlaybackEvent 1006fd20       amstrmid:strmiids.obj
 0002:00006d30       _IID_IMSVidFilePlayback    1006fd30       amstrmid:strmiids.obj
 0002:00006d40       _IID_IMSVidAnalogTunerEvent 1006fd40       amstrmid:strmiids.obj
 0002:00006d50       _IID_IMSVidAnalogTuner     1006fd50       amstrmid:strmiids.obj
 0002:00006d60       _IID_IMSVidTunerEvent      1006fd60       amstrmid:strmiids.obj
 0002:00006d70       _IID_IMSVidTuner           1006fd70       amstrmid:strmiids.obj
 0002:00006d80       _IID_IMSVidPlaybackEvent   1006fd80       amstrmid:strmiids.obj
 0002:00006d90       _IID_IMSVidPlayback        1006fd90       amstrmid:strmiids.obj
 0002:00006da0       _IID_IMSVidVideoInputDevice 1006fda0       amstrmid:strmiids.obj
 0002:00006db0       _IID_IMSVidInputDeviceEvent 1006fdb0       amstrmid:strmiids.obj
 0002:00006dc0       _IID_IMSVidDeviceEvent     1006fdc0       amstrmid:strmiids.obj
 0002:00006dd0       _IID_IMSVidInputDevice     1006fdd0       amstrmid:strmiids.obj
 0002:00006de0       _IID_IMSVidDevice          1006fde0       amstrmid:strmiids.obj
 0002:00006df0       _IID_IMSVidVRGraphSegment  1006fdf0       amstrmid:strmiids.obj
 0002:00006e00       _IID_IEnumMSVidGraphSegment 1006fe00       amstrmid:strmiids.obj
 0002:00006e10       _IID_IMSVidCompositionSegment 1006fe10       amstrmid:strmiids.obj
 0002:00006e20       _IID_IMSVidGraphSegmentUserInput 1006fe20       amstrmid:strmiids.obj
 0002:00006e30       _IID_IMSVidGraphSegment    1006fe30       amstrmid:strmiids.obj
 0002:00006e40       _IID_IMSVidGraphSegmentContainer 1006fe40       amstrmid:strmiids.obj
 0002:00006e50       _IID_IMSVidRect            1006fe50       amstrmid:strmiids.obj
 0002:00006e60       _CLSID_BroadcastEventService 1006fe60       amstrmid:strmiids.obj
 0002:00006e70       _CLSID_CreatePropBagOnRegKey 1006fe70       amstrmid:strmiids.obj
 0002:00006e80       _CLSID_DVBTuneRequest      1006fe80       amstrmid:strmiids.obj
 0002:00006e90       _CLSID_DVBCLocator         1006fe90       amstrmid:strmiids.obj
 0002:00006ea0       _CLSID_DVBSLocator         1006fea0       amstrmid:strmiids.obj
 0002:00006eb0       _CLSID_DVBTLocator         1006feb0       amstrmid:strmiids.obj
 0002:00006ec0       _CLSID_ATSCLocator         1006fec0       amstrmid:strmiids.obj
 0002:00006ed0       _CLSID_Locator             1006fed0       amstrmid:strmiids.obj
 0002:00006ee0       _CLSID_MPEG2TuneRequestFactory 1006fee0       amstrmid:strmiids.obj
 0002:00006ef0       _CLSID_MPEG2TuneRequest    1006fef0       amstrmid:strmiids.obj
 0002:00006f00       _CLSID_ATSCChannelTuneRequest 1006ff00       amstrmid:strmiids.obj
 0002:00006f10       _CLSID_ChannelTuneRequest  1006ff10       amstrmid:strmiids.obj
 0002:00006f20       _CLSID_TuneRequest         1006ff20       amstrmid:strmiids.obj
 0002:00006f30       _CLSID_MPEG2Component      1006ff30       amstrmid:strmiids.obj
 0002:00006f40       _CLSID_Component           1006ff40       amstrmid:strmiids.obj
 0002:00006f50       _CLSID_Components          1006ff50       amstrmid:strmiids.obj
 0002:00006f60       _CLSID_ATSCComponentType   1006ff60       amstrmid:strmiids.obj
 0002:00006f70       _CLSID_MPEG2ComponentType  1006ff70       amstrmid:strmiids.obj
 0002:00006f80       _CLSID_LanguageComponentType 1006ff80       amstrmid:strmiids.obj
 0002:00006f90       _CLSID_ComponentType       1006ff90       amstrmid:strmiids.obj
 0002:00006fa0       _CLSID_ComponentTypes      1006ffa0       amstrmid:strmiids.obj
 0002:00006fb0       _CLSID_DVBSTuningSpace     1006ffb0       amstrmid:strmiids.obj
 0002:00006fc0       _CLSID_DVBTuningSpace      1006ffc0       amstrmid:strmiids.obj
 0002:00006fd0       _CLSID_AnalogTVTuningSpace 1006ffd0       amstrmid:strmiids.obj
 0002:00006fe0       _CLSID_AuxInTuningSpace    1006ffe0       amstrmid:strmiids.obj
 0002:00006ff0       _CLSID_AnalogRadioTuningSpace 1006fff0       amstrmid:strmiids.obj
 0002:00007000       _CLSID_ATSCTuningSpace     10070000       amstrmid:strmiids.obj
 0002:00007010       _CLSID_TuningSpace         10070010       amstrmid:strmiids.obj
 0002:00007020       _CLSID_SystemTuningSpaces  10070020       amstrmid:strmiids.obj
 0002:00007030       _LIBID_TunerLib            10070030       amstrmid:strmiids.obj
 0002:00007040       _IID_IBroadcastEvent       10070040       amstrmid:strmiids.obj
 0002:00007050       _IID_IDVBCLocator          10070050       amstrmid:strmiids.obj
 0002:00007060       _IID_IDVBSLocator          10070060       amstrmid:strmiids.obj
 0002:00007070       _IID_IDVBTLocator          10070070       amstrmid:strmiids.obj
 0002:00007080       _IID_IATSCLocator          10070080       amstrmid:strmiids.obj
 0002:00007090       _IID_ILocator              10070090       amstrmid:strmiids.obj
 0002:000070a0       _IID_IComponents           100700a0       amstrmid:strmiids.obj
 0002:000070b0       _IID_IEnumComponents       100700b0       amstrmid:strmiids.obj
 0002:000070c0       _IID_IMPEG2Component       100700c0       amstrmid:strmiids.obj
 0002:000070d0       _IID_IComponent            100700d0       amstrmid:strmiids.obj
 0002:000070e0       _IID_IComponentTypes       100700e0       amstrmid:strmiids.obj
 0002:000070f0       _IID_IEnumComponentTypes   100700f0       amstrmid:strmiids.obj
 0002:00007100       _IID_IATSCComponentType    10070100       amstrmid:strmiids.obj
 0002:00007110       _IID_IMPEG2ComponentType   10070110       amstrmid:strmiids.obj
 0002:00007120       _IID_ILanguageComponentType 10070120       amstrmid:strmiids.obj
 0002:00007130       _IID_IComponentType        10070130       amstrmid:strmiids.obj
 0002:00007140       _IID_IScanningTuner        10070140       amstrmid:strmiids.obj
 0002:00007150       _IID_ITuner                10070150       amstrmid:strmiids.obj
 0002:00007160       _IID_IMPEG2TuneRequestSupport 10070160       amstrmid:strmiids.obj
 0002:00007170       _IID_IMPEG2TuneRequestFactory 10070170       amstrmid:strmiids.obj
 0002:00007180       _IID_IMPEG2TuneRequest     10070180       amstrmid:strmiids.obj
 0002:00007190       _IID_IDVBTuneRequest       10070190       amstrmid:strmiids.obj
 0002:000071a0       _IID_IATSCChannelTuneRequest 100701a0       amstrmid:strmiids.obj
 0002:000071b0       _IID_IChannelTuneRequest   100701b0       amstrmid:strmiids.obj
 0002:000071c0       _IID_ITuneRequest          100701c0       amstrmid:strmiids.obj
 0002:000071d0       _IID_IAnalogRadioTuningSpace 100701d0       amstrmid:strmiids.obj
 0002:000071e0       _IID_IATSCTuningSpace      100701e0       amstrmid:strmiids.obj
 0002:000071f0       _IID_IAnalogTVTuningSpace  100701f0       amstrmid:strmiids.obj
 0002:00007200       _IID_IAuxInTuningSpace     10070200       amstrmid:strmiids.obj
 0002:00007210       _IID_IDVBSTuningSpace      10070210       amstrmid:strmiids.obj
 0002:00007220       _IID_IDVBTuningSpace2      10070220       amstrmid:strmiids.obj
 0002:00007230       _IID_IDVBTuningSpace       10070230       amstrmid:strmiids.obj
 0002:00007240       _IID_IEnumTuningSpaces     10070240       amstrmid:strmiids.obj
 0002:00007250       _IID_ITuningSpace          10070250       amstrmid:strmiids.obj
 0002:00007260       _IID_ITuningSpaceContainer 10070260       amstrmid:strmiids.obj
 0002:00007270       _IID_ITuningSpaces         10070270       amstrmid:strmiids.obj
 0002:00007280       _IID_ICreatePropBagOnRegKey 10070280       amstrmid:strmiids.obj
 0002:00007290       _IID_IVPManager            10070290       amstrmid:strmiids.obj
 0002:000072a0       _IID_IVMRImagePresenterExclModeConfig 100702a0       amstrmid:strmiids.obj
 0002:000072b0       _IID_IVMRImagePresenterConfig 100702b0       amstrmid:strmiids.obj
 0002:000072c0       _IID_IVMRSurface           100702c0       amstrmid:strmiids.obj
 0002:000072d0       _IID_IVMRVideoStreamControl 100702d0       amstrmid:strmiids.obj
 0002:000072e0       _IID_IVMRImageCompositor   100702e0       amstrmid:strmiids.obj
 0002:000072f0       _IID_IVMRMixerBitmap       100702f0       amstrmid:strmiids.obj
 0002:00007300       _IID_IVMRDeinterlaceControl 10070300       amstrmid:strmiids.obj
 0002:00007310       _IID_IVMRAspectRatioControl 10070310       amstrmid:strmiids.obj
 0002:00007320       _IID_IVMRFilterConfig      10070320       amstrmid:strmiids.obj
 0002:00007330       _IID_IVMRMonitorConfig     10070330       amstrmid:strmiids.obj
 0002:00007340       _IID_IVMRMixerControl      10070340       amstrmid:strmiids.obj
 0002:00007350       _IID_IVMRWindowlessControl 10070350       amstrmid:strmiids.obj
 0002:00007360       _IID_IVMRSurfaceAllocatorNotify 10070360       amstrmid:strmiids.obj
 0002:00007370       _IID_IVMRSurfaceAllocator  10070370       amstrmid:strmiids.obj
 0002:00007380       _IID_IVMRImagePresenter    10070380       amstrmid:strmiids.obj
 0002:00007390       _IID_IFilterChain          10070390       amstrmid:strmiids.obj
 0002:000073a0       _IID_IGraphConfigCallback  100703a0       amstrmid:strmiids.obj
 0002:000073b0       _IID_IGraphConfig          100703b0       amstrmid:strmiids.obj
 0002:000073c0       _IID_IPinFlowControl       100703c0       amstrmid:strmiids.obj
 0002:000073d0       _IID_IPinConnection        100703d0       amstrmid:strmiids.obj
 0002:000073e0       _IID_IDDrawExclModeVideoCallback 100703e0       amstrmid:strmiids.obj
 0002:000073f0       _IID_IDDrawExclModeVideo   100703f0       amstrmid:strmiids.obj
 0002:00007400       _IID_IDvdGraphBuilder      10070400       amstrmid:strmiids.obj
 0002:00007410       _IID_IDvdInfo2             10070410       amstrmid:strmiids.obj
 0002:00007420       _IID_IDvdControl2          10070420       amstrmid:strmiids.obj
 0002:00007430       _IID_IDvdState             10070430       amstrmid:strmiids.obj
 0002:00007440       _IID_IDvdCmd               10070440       amstrmid:strmiids.obj
 0002:00007450       _IID_IDvdInfo              10070450       amstrmid:strmiids.obj
 0002:00007460       _IID_IDvdControl           10070460       amstrmid:strmiids.obj
 0002:00007470       _IID_IAMDecoderCaps        10070470       amstrmid:strmiids.obj
 0002:00007480       _IID_IVideoEncoder         10070480       amstrmid:strmiids.obj
 0002:00007490       _IID_IEncoderAPI           10070490       amstrmid:strmiids.obj
 0002:000074a0       _IID_IGetCapabilitiesKey   100704a0       amstrmid:strmiids.obj
 0002:000074b0       _IID_ICodecAPI             100704b0       amstrmid:strmiids.obj
 0002:000074c0       _IID_IAMGraphBuilderCallback 100704c0       amstrmid:strmiids.obj
 0002:000074d0       _IID_IAMClockSlave         100704d0       amstrmid:strmiids.obj
 0002:000074e0       _IID_IRegisterServiceProvider 100704e0       amstrmid:strmiids.obj
 0002:000074f0       _IID_IMPEG2StreamIdMap     100704f0       amstrmid:strmiids.obj
 0002:00007500       _IID_IEnumStreamIdMap      10070500       amstrmid:strmiids.obj
 0002:00007510       _IID_IMpeg2Demultiplexer   10070510       amstrmid:strmiids.obj
 0002:00007520       _IID_IAMOpenProgress       10070520       amstrmid:strmiids.obj
 0002:00007530       _IID_IAMOverlayFX          10070530       amstrmid:strmiids.obj
 0002:00007540       _IID_IAMGraphStreams       10070540       amstrmid:strmiids.obj
 0002:00007550       _IID_IAMAudioRendererStats 10070550       amstrmid:strmiids.obj
 0002:00007560       _IID_IDVSplitter           10070560       amstrmid:strmiids.obj
 0002:00007570       _IID_IDVRGB219             10070570       amstrmid:strmiids.obj
 0002:00007580       _IID_IIPDVDec              10070580       amstrmid:strmiids.obj
 0002:00007590       _IID_IDVEnc                10070590       amstrmid:strmiids.obj
 0002:000075a0       _IID_IAMDeviceRemoval      100705a0       amstrmid:strmiids.obj
 0002:000075b0       _IID_IAMPushSource         100705b0       amstrmid:strmiids.obj
 0002:000075c0       _IID_IAMLatency            100705c0       amstrmid:strmiids.obj
 0002:000075d0       _IID_IVideoFrameStep       100705d0       amstrmid:strmiids.obj
 0002:000075e0       _IID_IAMVideoDecimationProperties 100705e0       amstrmid:strmiids.obj
 0002:000075f0       _IID_IDecimateVideoImage   100705f0       amstrmid:strmiids.obj
 0002:00007600       _IID_IDrawVideoImage       10070600       amstrmid:strmiids.obj
 0002:00007610       _IID_IAMFilterMiscFlags    10070610       amstrmid:strmiids.obj
 0002:00007620       _IID_IAMClockAdjust        10070620       amstrmid:strmiids.obj
 0002:00007630       _IID_IAMResourceControl    10070630       amstrmid:strmiids.obj
 0002:00007640       _IID_IAMStreamSelect       10070640       amstrmid:strmiids.obj
 0002:00007650       _IID_IAMDevMemoryControl   10070650       amstrmid:strmiids.obj
 0002:00007660       _IID_IAMDevMemoryAllocator 10070660       amstrmid:strmiids.obj
 0002:00007670       _IID_IAMTimecodeDisplay    10070670       amstrmid:strmiids.obj
 0002:00007680       _IID_IAMTimecodeGenerator  10070680       amstrmid:strmiids.obj
 0002:00007690       _IID_IAMTimecodeReader     10070690       amstrmid:strmiids.obj
 0002:000076a0       _IID_IAMExtTransport       100706a0       amstrmid:strmiids.obj
 0002:000076b0       _IID_IAMExtDevice          100706b0       amstrmid:strmiids.obj
 0002:000076c0       _IID_IAMPhysicalPinInfo    100706c0       amstrmid:strmiids.obj
 0002:000076d0       _IID_IPersistMediaPropertyBag 100706d0       amstrmid:strmiids.obj
 0002:000076e0       _IID_IMediaPropertyBag     100706e0       amstrmid:strmiids.obj
 0002:000076f0       _IID_IKsPropertySet        100706f0       amstrmid:strmiids.obj
 0002:00007700       _IID_IAMAnalogVideoEncoder 10070700       amstrmid:strmiids.obj
 0002:00007710       _IID_IAMTVAudioNotification 10070710       amstrmid:strmiids.obj
 0002:00007720       _IID_IAMTVAudio            10070720       amstrmid:strmiids.obj
 0002:00007730       _IID_IBPCSatelliteTuner    10070730       amstrmid:strmiids.obj
 0002:00007740       _IID_IAMTVTuner            10070740       amstrmid:strmiids.obj
 0002:00007750       _IID_IAMTunerNotification  10070750       amstrmid:strmiids.obj
 0002:00007760       _IID_IAMTuner              10070760       amstrmid:strmiids.obj
 0002:00007770       _IID_IAMCrossbar           10070770       amstrmid:strmiids.obj
 0002:00007780       _IID_IAMVideoControl       10070780       amstrmid:strmiids.obj
 0002:00007790       _IID_IAMCameraControl      10070790       amstrmid:strmiids.obj
 0002:000077a0       _IID_IAMVideoProcAmp       100707a0       amstrmid:strmiids.obj
 0002:000077b0       _IID_IAMAnalogVideoDecoder 100707b0       amstrmid:strmiids.obj
 0002:000077c0       _IID_IAMBufferNegotiation  100707c0       amstrmid:strmiids.obj
 0002:000077d0       _IID_IAMAudioInputMixer    100707d0       amstrmid:strmiids.obj
 0002:000077e0       _IID_IAMDroppedFrames      100707e0       amstrmid:strmiids.obj
 0002:000077f0       _IID_IAMVfwCompressDialogs 100707f0       amstrmid:strmiids.obj
 0002:00007800       _IID_IAMVfwCaptureDialogs  10070800       amstrmid:strmiids.obj
 0002:00007810       _IID_IAMVideoCompression   10070810       amstrmid:strmiids.obj
 0002:00007820       _IID_IConfigAviMux         10070820       amstrmid:strmiids.obj
 0002:00007830       _IID_IConfigInterleaving   10070830       amstrmid:strmiids.obj
 0002:00007840       _IID_IAMStreamConfig       10070840       amstrmid:strmiids.obj
 0002:00007850       _IID_ISeekingPassThru      10070850       amstrmid:strmiids.obj
 0002:00007860       _IID_IAMStreamControl      10070860       amstrmid:strmiids.obj
 0002:00007870       _IID_IDistributorNotify    10070870       amstrmid:strmiids.obj
 0002:00007880       _IID_IResourceManager      10070880       amstrmid:strmiids.obj
 0002:00007890       _IID_IResourceConsumer     10070890       amstrmid:strmiids.obj
 0002:000078a0       _IID_IGraphVersion         100708a0       amstrmid:strmiids.obj
 0002:000078b0       _IID_IAsyncReader          100708b0       amstrmid:strmiids.obj
 0002:000078c0       _IID_IStreamBuilder        100708c0       amstrmid:strmiids.obj
 0002:000078d0       _IID_IFilterGraph2         100708d0       amstrmid:strmiids.obj
 0002:000078e0       _IID_ICaptureGraphBuilder2 100708e0       amstrmid:strmiids.obj
 0002:000078f0       _IID_IAMCopyCaptureFileProgress 100708f0       amstrmid:strmiids.obj
 0002:00007900       _IID_ICaptureGraphBuilder  10070900       amstrmid:strmiids.obj
 0002:00007910       _IID_IGraphBuilder         10070910       amstrmid:strmiids.obj
 0002:00007920       _IID_IFileSinkFilter2      10070920       amstrmid:strmiids.obj
 0002:00007930       _IID_IFileSinkFilter       10070930       amstrmid:strmiids.obj
 0002:00007940       _IID_IFileSourceFilter     10070940       amstrmid:strmiids.obj
 0002:00007950       _IID_IMediaEventSink       10070950       amstrmid:strmiids.obj
 0002:00007960       _IID_IOverlay              10070960       amstrmid:strmiids.obj
 0002:00007970       _IID_IOverlayNotify2       10070970       amstrmid:strmiids.obj
 0002:00007980       _IID_IOverlayNotify        10070980       amstrmid:strmiids.obj
 0002:00007990       _IID_IQualityControl       10070990       amstrmid:strmiids.obj
 0002:000079a0       _IID_IFilterMapper3        100709a0       amstrmid:strmiids.obj
 0002:000079b0       _IID_IFilterMapper2        100709b0       amstrmid:strmiids.obj
 0002:000079c0       _IID_IFilterMapper         100709c0       amstrmid:strmiids.obj
 0002:000079d0       _IID_IEnumRegFilters       100709d0       amstrmid:strmiids.obj
 0002:000079e0       _IID_IMediaSeeking         100709e0       amstrmid:strmiids.obj
 0002:000079f0       _IID_IAMovieSetup          100709f0       amstrmid:strmiids.obj
 0002:00007a00       _IID_IMemInputPin          10070a00       amstrmid:strmiids.obj
 0002:00007a10       _IID_IMemAllocatorNotifyCallbackTemp 10070a10       amstrmid:strmiids.obj
 0002:00007a20       _IID_IMemAllocatorCallbackTemp 10070a20       amstrmid:strmiids.obj
 0002:00007a30       _IID_IMemAllocator         10070a30       amstrmid:strmiids.obj
 0002:00007a40       _IID_IMediaSample2         10070a40       amstrmid:strmiids.obj
 0002:00007a50       _IID_IMediaSample          10070a50       amstrmid:strmiids.obj
 0002:00007a60       _IID_IReferenceClock2      10070a60       amstrmid:strmiids.obj
 0002:00007a70       _IID_IReferenceClock       10070a70       amstrmid:strmiids.obj
 0002:00007a80       _IID_IBaseFilter           10070a80       amstrmid:strmiids.obj
 0002:00007a90       _IID_IMediaFilter          10070a90       amstrmid:strmiids.obj
 0002:00007aa0       _IID_IEnumFilters          10070aa0       amstrmid:strmiids.obj
 0002:00007ab0       _IID_IFilterGraph          10070ab0       amstrmid:strmiids.obj
 0002:00007ac0       _IID_IEnumMediaTypes       10070ac0       amstrmid:strmiids.obj
 0002:00007ad0       _IID_IEnumPins             10070ad0       amstrmid:strmiids.obj
 0002:00007ae0       _IID_IPin                  10070ae0       amstrmid:strmiids.obj
 0002:00007af0       _IID_ICreateDevEnum        10070af0       amstrmid:strmiids.obj
 0002:00007b00       _CLSID_DxtKey              10070b00       amstrmid:strmiids.obj
 0002:00007b10       _CLSID_ColorSource         10070b10       amstrmid:strmiids.obj
 0002:00007b20       _CLSID_DxtJpeg             10070b20       amstrmid:strmiids.obj
 0002:00007b30       _CLSID_DxtAlphaSetter      10070b30       amstrmid:strmiids.obj
 0002:00007b40       _CLSID_DxtCompositor       10070b40       amstrmid:strmiids.obj
 0002:00007b50       _CLSID_NullRenderer        10070b50       amstrmid:strmiids.obj
 0002:00007b60       _CLSID_SampleGrabber       10070b60       amstrmid:strmiids.obj
 0002:00007b70       _CLSID_MediaDet            10070b70       amstrmid:strmiids.obj
 0002:00007b80       _CLSID_PropertySetter      10070b80       amstrmid:strmiids.obj
 0002:00007b90       _CLSID_MediaLocator        10070b90       amstrmid:strmiids.obj
 0002:00007ba0       _CLSID_Xml2Dex             10070ba0       amstrmid:strmiids.obj
 0002:00007bb0       _CLSID_AudMixer            10070bb0       amstrmid:strmiids.obj
 0002:00007bc0       _CLSID_SmartRenderEngine   10070bc0       amstrmid:strmiids.obj
 0002:00007bd0       _CLSID_RenderEngine        10070bd0       amstrmid:strmiids.obj
 0002:00007be0       _CLSID_AMTimelineEffect    10070be0       amstrmid:strmiids.obj
 0002:00007bf0       _CLSID_AMTimelineTrans     10070bf0       amstrmid:strmiids.obj
 0002:00007c00       _CLSID_AMTimelineGroup     10070c00       amstrmid:strmiids.obj
 0002:00007c10       _CLSID_AMTimelineComp      10070c10       amstrmid:strmiids.obj
 0002:00007c20       _CLSID_AMTimelineTrack     10070c20       amstrmid:strmiids.obj
 0002:00007c30       _CLSID_AMTimelineSrc       10070c30       amstrmid:strmiids.obj
 0002:00007c40       _CLSID_AMTimelineObj       10070c40       amstrmid:strmiids.obj
 0002:00007c50       _CLSID_AMTimeline          10070c50       amstrmid:strmiids.obj
 0002:00007c60       _IID_IResize               10070c60       amstrmid:strmiids.obj
 0002:00007c70       _LIBID_DexterLib           10070c70       amstrmid:strmiids.obj
 0002:00007c80       _IID_ISampleGrabber        10070c80       amstrmid:strmiids.obj
 0002:00007c90       _IID_ISampleGrabberCB      10070c90       amstrmid:strmiids.obj
 0002:00007ca0       _IID_IAMSetErrorLog        10070ca0       amstrmid:strmiids.obj
 0002:00007cb0       _IID_IAMErrorLog           10070cb0       amstrmid:strmiids.obj
 0002:00007cc0       _IID_IXml2Dex              10070cc0       amstrmid:strmiids.obj
 0002:00007cd0       _IID_IAMTimeline           10070cd0       amstrmid:strmiids.obj
 0002:00007ce0       _IID_IAMTimelineGroup      10070ce0       amstrmid:strmiids.obj
 0002:00007cf0       _IID_IAMTimelineComp       10070cf0       amstrmid:strmiids.obj
 0002:00007d00       _IID_IAMTimelineVirtualTrack 10070d00       amstrmid:strmiids.obj
 0002:00007d10       _IID_IAMTimelineTrack      10070d10       amstrmid:strmiids.obj
 0002:00007d20       _IID_IAMTimelineSrc        10070d20       amstrmid:strmiids.obj
 0002:00007d30       _IID_IAMTimelineTrans      10070d30       amstrmid:strmiids.obj
 0002:00007d40       _IID_IAMTimelineSplittable 10070d40       amstrmid:strmiids.obj
 0002:00007d50       _IID_IAMTimelineTransable  10070d50       amstrmid:strmiids.obj
 0002:00007d60       _IID_IAMTimelineEffect     10070d60       amstrmid:strmiids.obj
 0002:00007d70       _IID_IAMTimelineEffectable 10070d70       amstrmid:strmiids.obj
 0002:00007d80       _IID_IAMTimelineObj        10070d80       amstrmid:strmiids.obj
 0002:00007d90       _IID_ISmartRenderEngine    10070d90       amstrmid:strmiids.obj
 0002:00007da0       _IID_IFindCompressorCB     10070da0       amstrmid:strmiids.obj
 0002:00007db0       _IID_IRenderEngine2        10070db0       amstrmid:strmiids.obj
 0002:00007dc0       _IID_IRenderEngine         10070dc0       amstrmid:strmiids.obj
 0002:00007dd0       _IID_IGrfCache             10070dd0       amstrmid:strmiids.obj
 0002:00007de0       _IID_IMediaDet             10070de0       amstrmid:strmiids.obj
 0002:00007df0       _IID_IMediaLocator         10070df0       amstrmid:strmiids.obj
 0002:00007e00       _IID_IDxtKey               10070e00       amstrmid:strmiids.obj
 0002:00007e10       _IID_IDxtJpeg              10070e10       amstrmid:strmiids.obj
 0002:00007e20       _IID_IDxtAlphaSetter       10070e20       amstrmid:strmiids.obj
 0002:00007e30       _IID_IDxtCompositor        10070e30       amstrmid:strmiids.obj
 0002:00007e40       _IID_IPropertySetter       10070e40       amstrmid:strmiids.obj
 0002:00007e50       _IID_IStreamSample         10070e50       amstrmid:strmiids.obj
 0002:00007e60       _IID_IMediaStream          10070e60       amstrmid:strmiids.obj
 0002:00007e70       _IID_IMultiMediaStream     10070e70       amstrmid:strmiids.obj
 0002:00007e80       _IID_IDirectDrawStreamSample 10070e80       amstrmid:strmiids.obj
 0002:00007e90       _IID_IDirectDrawMediaStream 10070e90       amstrmid:strmiids.obj
 0002:00007ea0       _IID_IAudioData            10070ea0       amstrmid:strmiids.obj
 0002:00007eb0       _IID_IMemoryData           10070eb0       amstrmid:strmiids.obj
 0002:00007ec0       _IID_IAudioStreamSample    10070ec0       amstrmid:strmiids.obj
 0002:00007ed0       _IID_IAudioMediaStream     10070ed0       amstrmid:strmiids.obj
 0002:00007ee0       _CLSID_AMMultiMediaStream  10070ee0       amstrmid:strmiids.obj
 0002:00007ef0       _LIBID_DirectShowStreamLib 10070ef0       amstrmid:strmiids.obj
 0002:00007f00       _IID_IAMMediaTypeSample    10070f00       amstrmid:strmiids.obj
 0002:00007f10       _IID_IAMMediaTypeStream    10070f10       amstrmid:strmiids.obj
 0002:00007f20       _IID_IDirectDrawMediaSample 10070f20       amstrmid:strmiids.obj
 0002:00007f30       _IID_IDirectDrawMediaSampleAllocator 10070f30       amstrmid:strmiids.obj
 0002:00007f40       _IID_IMediaStreamFilter    10070f40       amstrmid:strmiids.obj
 0002:00007f50       _IID_IAMMediaStream        10070f50       amstrmid:strmiids.obj
 0002:00007f60       _IID_IAMMultiMediaStream   10070f60       amstrmid:strmiids.obj
 0002:00007f70       _IID_IDirectShowStream     10070f70       amstrmid:strmiids.obj
 0002:00007f80       _IID_IAMStats              10070f80       amstrmid:strmiids.obj
 0002:00007f90       _IID_IPinInfo              10070f90       amstrmid:strmiids.obj
 0002:00007fa0       _IID_IMediaTypeInfo        10070fa0       amstrmid:strmiids.obj
 0002:00007fb0       _IID_IRegFilterInfo        10070fb0       amstrmid:strmiids.obj
 0002:00007fc0       _IID_IFilterInfo           10070fc0       amstrmid:strmiids.obj
 0002:00007fd0       _CLSID_FilgraphManager     10070fd0       amstrmid:strmiids.obj
 0002:00007fe0       _IID_IQueueCommand         10070fe0       amstrmid:strmiids.obj
 0002:00007ff0       _IID_IDeferredCommand      10070ff0       amstrmid:strmiids.obj
 0002:00008000       _IID_IBasicVideo2          10071000       amstrmid:strmiids.obj
 0002:00008010       _IID_IBasicVideo           10071010       amstrmid:strmiids.obj
 0002:00008020       _IID_IVideoWindow          10071020       amstrmid:strmiids.obj
 0002:00008030       _IID_IBasicAudio           10071030       amstrmid:strmiids.obj
 0002:00008040       _IID_IMediaPosition        10071040       amstrmid:strmiids.obj
 0002:00008050       _IID_IMediaEventEx         10071050       amstrmid:strmiids.obj
 0002:00008060       _IID_IMediaEvent           10071060       amstrmid:strmiids.obj
 0002:00008070       _IID_IMediaControl         10071070       amstrmid:strmiids.obj
 0002:00008080       _IID_IAMCollection         10071080       amstrmid:strmiids.obj
 0002:00008090       _LIBID_QuartzTypeLib       10071090       amstrmid:strmiids.obj
 0002:000080a0       _CODECAPI_CURRENTCHANGELIST 100710a0       amstrmid:strmiids.obj
 0002:000080b0       _CODECAPI_SUPPORTSEVENTS   100710b0       amstrmid:strmiids.obj
 0002:000080c0       _CODECAPI_ALLSETTINGS      100710c0       amstrmid:strmiids.obj
 0002:000080d0       _CODECAPI_SETALLDEFAULTS   100710d0       amstrmid:strmiids.obj
 0002:000080e0       _CODECAPI_AUDIO_ENCODER    100710e0       amstrmid:strmiids.obj
 0002:000080f0       _CODECAPI_VIDEO_ENCODER    100710f0       amstrmid:strmiids.obj
 0002:00008100       _CODECAPI_CHANGELISTS      10071100       amstrmid:strmiids.obj
 0002:00008110       _ENCAPIPARAM_BITRATE_MODE  10071110       amstrmid:strmiids.obj
 0002:00008120       _ENCAPIPARAM_PEAK_BITRATE  10071120       amstrmid:strmiids.obj
 0002:00008130       _ENCAPIPARAM_BITRATE       10071130       amstrmid:strmiids.obj
 0002:00008140       _CLSID_IVideoEncoderCodecAPIProxy 10071140       amstrmid:strmiids.obj
 0002:00008150       _CLSID_ICodecAPIProxy      10071150       amstrmid:strmiids.obj
 0002:00008160       _CLSID_IVideoEncoderProxy  10071160       amstrmid:strmiids.obj
 0002:00008170       _CLSID_TVEFilterStatsProperties 10071170       amstrmid:strmiids.obj
 0002:00008180       _CLSID_TVEFilterCCProperties 10071180       amstrmid:strmiids.obj
 0002:00008190       _CLSID_TVEFilterTuneProperties 10071190       amstrmid:strmiids.obj
 0002:000081a0       _CLSID_DShowTVEFilter      100711a0       amstrmid:strmiids.obj
 0002:000081b0       _CLSID_DVBCNetworkProvider 100711b0       amstrmid:strmiids.obj
 0002:000081c0       _CLSID_DVBTNetworkProvider 100711c0       amstrmid:strmiids.obj
 0002:000081d0       _CLSID_DVBSNetworkProvider 100711d0       amstrmid:strmiids.obj
 0002:000081e0       _CLSID_ATSCNetworkPropertyPage 100711e0       amstrmid:strmiids.obj
 0002:000081f0       _CLSID_ATSCNetworkProvider 100711f0       amstrmid:strmiids.obj
 0002:00008200       _CLSID_VideoMixingRenderer9 10071200       amstrmid:strmiids.obj
 0002:00008210       _CLSID_VideoPortManager    10071210       amstrmid:strmiids.obj
 0002:00008220       _CLSID_AllocPresenterDDXclMode 10071220       amstrmid:strmiids.obj
 0002:00008230       _CLSID_AllocPresenter      10071230       amstrmid:strmiids.obj
 0002:00008240       _CLSID_VideoRendererDefault 10071240       amstrmid:strmiids.obj
 0002:00008250       _CLSID_VideoMixingRenderer 10071250       amstrmid:strmiids.obj
 0002:00008260       _CLSID_AudioRendererAdvancedProperties 10071260       amstrmid:strmiids.obj
 0002:00008270       _CLSID_VideoStreamConfigPropertyPage 10071270       amstrmid:strmiids.obj
 0002:00008280       _CLSID_AnalogVideoDecoderPropertyPage 10071280       amstrmid:strmiids.obj
 0002:00008290       _CLSID_CameraControlPropertyPage 10071290       amstrmid:strmiids.obj
 0002:000082a0       _CLSID_VideoProcAmpPropertyPage 100712a0       amstrmid:strmiids.obj
 0002:000082b0       _CLSID_TVAudioFilterPropertyPage 100712b0       amstrmid:strmiids.obj
 0002:000082c0       _CLSID_CrossbarFilterPropertyPage 100712c0       amstrmid:strmiids.obj
 0002:000082d0       _CLSID_TVTunerFilterPropertyPage 100712d0       amstrmid:strmiids.obj
 0002:000082e0       _LOOK_DOWNSTREAM_ONLY      100712e0       amstrmid:strmiids.obj
 0002:000082f0       _LOOK_UPSTREAM_ONLY        100712f0       amstrmid:strmiids.obj
 0002:00008300       _PIN_CATEGORY_VIDEOPORT_VBI 10071300       amstrmid:strmiids.obj
 0002:00008310       _PIN_CATEGORY_TIMECODE     10071310       amstrmid:strmiids.obj
 0002:00008320       _PIN_CATEGORY_STILL        10071320       amstrmid:strmiids.obj
 0002:00008330       _PIN_CATEGORY_CC           10071330       amstrmid:strmiids.obj
 0002:00008340       _PIN_CATEGORY_TELETEXT     10071340       amstrmid:strmiids.obj
 0002:00008350       _PIN_CATEGORY_EDS          10071350       amstrmid:strmiids.obj
 0002:00008360       _PIN_CATEGORY_NABTS        10071360       amstrmid:strmiids.obj
 0002:00008370       _PIN_CATEGORY_VIDEOPORT    10071370       amstrmid:strmiids.obj
 0002:00008380       _PIN_CATEGORY_VBI          10071380       amstrmid:strmiids.obj
 0002:00008390       _PIN_CATEGORY_ANALOGVIDEOIN 10071390       amstrmid:strmiids.obj
 0002:000083a0       _PIN_CATEGORY_PREVIEW      100713a0       amstrmid:strmiids.obj
 0002:000083b0       _PIN_CATEGORY_CAPTURE      100713b0       amstrmid:strmiids.obj
 0002:000083c0       _AMPROPSETID_Pin           100713c0       amstrmid:strmiids.obj
 0002:000083d0       _TIME_FORMAT_MEDIA_TIME    100713d0       amstrmid:strmiids.obj
 0002:000083e0       _TIME_FORMAT_FIELD         100713e0       amstrmid:strmiids.obj
 0002:000083f0       _TIME_FORMAT_SAMPLE        100713f0       amstrmid:strmiids.obj
 0002:00008400       _TIME_FORMAT_BYTE          10071400       amstrmid:strmiids.obj
 0002:00008410       _TIME_FORMAT_FRAME         10071410       amstrmid:strmiids.obj
 0002:00008420       _TIME_FORMAT_NONE          10071420       amstrmid:strmiids.obj
 0002:00008430       _AM_INTERFACESETID_Standard 10071430       amstrmid:strmiids.obj
 0002:00008440       _IID_IKsPinFactory         10071440       amstrmid:strmiids.obj
 0002:00008450       _IID_IKsControl            10071450       amstrmid:strmiids.obj
 0002:00008460       _IID_IKsPin                10071460       amstrmid:strmiids.obj
 0002:00008470       _IID_IKsDataTypeHandler    10071470       amstrmid:strmiids.obj
 0002:00008480       _IID_IKsInterfaceHandler   10071480       amstrmid:strmiids.obj
 0002:00008490       _AM_KSCATEGORY_SPLITTER    10071490       amstrmid:strmiids.obj
 0002:000084a0       _AM_KSCATEGORY_VBICODEC    100714a0       amstrmid:strmiids.obj
 0002:000084b0       _AM_KSCATEGORY_TVAUDIO     100714b0       amstrmid:strmiids.obj
 0002:000084c0       _AM_KSCATEGORY_CROSSBAR    100714c0       amstrmid:strmiids.obj
 0002:000084d0       _AM_KSCATEGORY_TVTUNER     100714d0       amstrmid:strmiids.obj
 0002:000084e0       _AM_KSCATEGORY_VIDEO       100714e0       amstrmid:strmiids.obj
 0002:000084f0       _AM_KSCATEGORY_AUDIO       100714f0       amstrmid:strmiids.obj
 0002:00008500       _AM_KSCATEGORY_DATACOMPRESSOR 10071500       amstrmid:strmiids.obj
 0002:00008510       _AM_KSCATEGORY_RENDER      10071510       amstrmid:strmiids.obj
 0002:00008520       _AM_KSCATEGORY_CAPTURE     10071520       amstrmid:strmiids.obj
 0002:00008530       _AM_KSPROPSETID_FrameStep  10071530       amstrmid:strmiids.obj
 0002:00008540       _AM_KSPROPSETID_DvdKaraoke 10071540       amstrmid:strmiids.obj
 0002:00008550       _AM_KSPROPSETID_DVD_RateChange 10071550       amstrmid:strmiids.obj
 0002:00008560       _AM_KSPROPSETID_TSRateChange 10071560       amstrmid:strmiids.obj
 0002:00008570       _AM_KSPROPSETID_CopyProt   10071570       amstrmid:strmiids.obj
 0002:00008580       _AM_KSPROPSETID_DvdSubPic  10071580       amstrmid:strmiids.obj
 0002:00008590       _AM_KSPROPSETID_AC3        10071590       amstrmid:strmiids.obj
 0002:000085a0       _FORMAT_DVD_LPCMAudio      100715a0       amstrmid:strmiids.obj
 0002:000085b0       _FORMAT_MPEG2Audio         100715b0       amstrmid:strmiids.obj
 0002:000085c0       _FORMAT_DolbyAC3           100715c0       amstrmid:strmiids.obj
 0002:000085d0       _FORMAT_MPEG2Video         100715d0       amstrmid:strmiids.obj
 0002:000085e0       _MEDIASUBTYPE_DVD_NAVIGATION_PROVIDER 100715e0       amstrmid:strmiids.obj
 0002:000085f0       _MEDIASUBTYPE_DVD_NAVIGATION_DSI 100715f0       amstrmid:strmiids.obj
 0002:00008600       _MEDIASUBTYPE_DVD_NAVIGATION_PCI 10071600       amstrmid:strmiids.obj
 0002:00008610       _MEDIATYPE_DVD_NAVIGATION  10071610       amstrmid:strmiids.obj
 0002:00008620       _MEDIATYPE_DVD_ENCRYPTED_PACK 10071620       amstrmid:strmiids.obj
 0002:00008630       _MEDIASUBTYPE_SDDS         10071630       amstrmid:strmiids.obj
 0002:00008640       _MEDIASUBTYPE_DTS          10071640       amstrmid:strmiids.obj
 0002:00008650       _MEDIASUBTYPE_DVD_LPCM_AUDIO 10071650       amstrmid:strmiids.obj
 0002:00008660       _MEDIASUBTYPE_DVD_SUBPICTURE 10071660       amstrmid:strmiids.obj
 0002:00008670       _MEDIASUBTYPE_DOLBY_AC3    10071670       amstrmid:strmiids.obj
 0002:00008680       _MEDIASUBTYPE_MPEG2_AUDIO  10071680       amstrmid:strmiids.obj
 0002:00008690       _MEDIASUBTYPE_MPEG2_TRANSPORT_STRIDE 10071690       amstrmid:strmiids.obj
 0002:000086a0       _MEDIASUBTYPE_MPEG2_TRANSPORT 100716a0       amstrmid:strmiids.obj
 0002:000086b0       _MEDIASUBTYPE_MPEG2_PROGRAM 100716b0       amstrmid:strmiids.obj
 0002:000086c0       _FORMAT_VIDEOINFO2         100716c0       amstrmid:strmiids.obj
 0002:000086d0       _FORMAT_MPEG2_VIDEO        100716d0       amstrmid:strmiids.obj
 0002:000086e0       _MEDIASUBTYPE_MPEG2_VIDEO  100716e0       amstrmid:strmiids.obj
 0002:000086f0       _MEDIASUBTYPE_MPEG2DATA    100716f0       amstrmid:strmiids.obj
 0002:00008700       _MEDIASUBTYPE_DVB_SI       10071700       amstrmid:strmiids.obj
 0002:00008710       _MEDIASUBTYPE_ATSC_SI      10071710       amstrmid:strmiids.obj
 0002:00008720       _MEDIATYPE_MPEG2_SECTIONS  10071720       amstrmid:strmiids.obj
 0002:00008730       _MEDIATYPE_MPEG2_PES       10071730       amstrmid:strmiids.obj
 0002:00008740       _MEDIATYPE_MPEG2_PACK      10071740       amstrmid:strmiids.obj
 0002:00008750       _MEDIATYPE_AnalogAudio     10071750       amstrmid:strmiids.obj
 0002:00008760       _MEDIASUBTYPE_AnalogVideo_SECAM_L 10071760       amstrmid:strmiids.obj
 0002:00008770       _MEDIASUBTYPE_AnalogVideo_SECAM_K1 10071770       amstrmid:strmiids.obj
 0002:00008780       _MEDIASUBTYPE_AnalogVideo_SECAM_K 10071780       amstrmid:strmiids.obj
 0002:00008790       _MEDIASUBTYPE_AnalogVideo_SECAM_H 10071790       amstrmid:strmiids.obj
 0002:000087a0       _MEDIASUBTYPE_AnalogVideo_SECAM_G 100717a0       amstrmid:strmiids.obj
 0002:000087b0       _MEDIASUBTYPE_AnalogVideo_SECAM_D 100717b0       amstrmid:strmiids.obj
 0002:000087c0       _MEDIASUBTYPE_AnalogVideo_SECAM_B 100717c0       amstrmid:strmiids.obj
 0002:000087d0       _MEDIASUBTYPE_AnalogVideo_PAL_N_COMBO 100717d0       amstrmid:strmiids.obj
 0002:000087e0       _MEDIASUBTYPE_AnalogVideo_PAL_N 100717e0       amstrmid:strmiids.obj
 0002:000087f0       _MEDIASUBTYPE_AnalogVideo_PAL_M 100717f0       amstrmid:strmiids.obj
 0002:00008800       _MEDIASUBTYPE_AnalogVideo_PAL_I 10071800       amstrmid:strmiids.obj
 0002:00008810       _MEDIASUBTYPE_AnalogVideo_PAL_H 10071810       amstrmid:strmiids.obj
 0002:00008820       _MEDIASUBTYPE_AnalogVideo_PAL_G 10071820       amstrmid:strmiids.obj
 0002:00008830       _MEDIASUBTYPE_AnalogVideo_PAL_D 10071830       amstrmid:strmiids.obj
 0002:00008840       _MEDIASUBTYPE_AnalogVideo_PAL_B 10071840       amstrmid:strmiids.obj
 0002:00008850       _MEDIASUBTYPE_AnalogVideo_NTSC_M 10071850       amstrmid:strmiids.obj
 0002:00008860       _MEDIATYPE_AnalogVideo     10071860       amstrmid:strmiids.obj
 0002:00008870       _FORMAT_AnalogVideo        10071870       amstrmid:strmiids.obj
 0002:00008880       _CLSID_WstDecoderPropertyPage 10071880       amstrmid:strmiids.obj
 0002:00008890       _IID_IAMWstDecoder         10071890       amstrmid:strmiids.obj
 0002:000088a0       _IID_IAMLine21Decoder      100718a0       amstrmid:strmiids.obj
 0002:000088b0       _IID_IMpegAudioDecoder     100718b0       amstrmid:strmiids.obj
 0002:000088c0       _IID_IAMDirectSound        100718c0       amstrmid:strmiids.obj
 0002:000088d0       _CLSID_DVMuxPropertyPage   100718d0       amstrmid:strmiids.obj
 0002:000088e0       _CLSID_DVEncPropertiesPage 100718e0       amstrmid:strmiids.obj
 0002:000088f0       _CLSID_DVDecPropertiesPage 100718f0       amstrmid:strmiids.obj
 0002:00008900       _IID_IFullScreenVideoEx    10071900       amstrmid:strmiids.obj
 0002:00008910       _IID_IFullScreenVideo      10071910       amstrmid:strmiids.obj
 0002:00008920       _CLSID_ModexProperties     10071920       amstrmid:strmiids.obj
 0002:00008930       _IID_IDirectDrawSurfaceKernel 10071930       amstrmid:strmiids.obj
 0002:00008940       _IID_IDirectDrawKernel     10071940       amstrmid:strmiids.obj
 0002:00008950       _IID_IDDVideoPortContainer 10071950       amstrmid:strmiids.obj
 0002:00008960       _IID_IDirectDrawColorControl 10071960       amstrmid:strmiids.obj
 0002:00008970       _IID_IDirectDrawClipper    10071970       amstrmid:strmiids.obj
 0002:00008980       _IID_IDirectDrawPalette    10071980       amstrmid:strmiids.obj
 0002:00008990       _IID_IDirectDrawSurface7   10071990       amstrmid:strmiids.obj
 0002:000089a0       _IID_IDirectDrawSurface4   100719a0       amstrmid:strmiids.obj
 0002:000089b0       _IID_IDirectDrawSurface3   100719b0       amstrmid:strmiids.obj
 0002:000089c0       _IID_IDirectDrawSurface2   100719c0       amstrmid:strmiids.obj
 0002:000089d0       _IID_IDirectDrawSurface    100719d0       amstrmid:strmiids.obj
 0002:000089e0       _IID_IDirectDraw2          100719e0       amstrmid:strmiids.obj
 0002:000089f0       _IID_IDirectDraw           100719f0       amstrmid:strmiids.obj
 0002:00008a00       _CLSID_DirectDrawClipper   10071a00       amstrmid:strmiids.obj
 0002:00008a10       _CLSID_DirectDraw          10071a10       amstrmid:strmiids.obj
 0002:00008a20       _IID_IMixerPinConfig2      10071a20       amstrmid:strmiids.obj
 0002:00008a30       _IID_IMixerPinConfig       10071a30       amstrmid:strmiids.obj
 0002:00008a40       _IID_IVPVBINotify          10071a40       amstrmid:strmiids.obj
 0002:00008a50       _IID_IVPVBIConfig          10071a50       amstrmid:strmiids.obj
 0002:00008a60       _IID_IVPNotify2            10071a60       amstrmid:strmiids.obj
 0002:00008a70       _IID_IVPNotify             10071a70       amstrmid:strmiids.obj
 0002:00008a80       _IID_IVPConfig             10071a80       amstrmid:strmiids.obj
 0002:00008a90       _IID_IVPVBIObject          10071a90       amstrmid:strmiids.obj
 0002:00008aa0       _CLSID_VPVBIObject         10071aa0       amstrmid:strmiids.obj
 0002:00008ab0       _IID_IVPControl            10071ab0       amstrmid:strmiids.obj
 0002:00008ac0       _IID_IVPObject             10071ac0       amstrmid:strmiids.obj
 0002:00008ad0       _CLSID_VPObject            10071ad0       amstrmid:strmiids.obj
 0002:00008ae0       _IID_IQualProp             10071ae0       amstrmid:strmiids.obj
 0002:00008af0       _IID_IDirectDrawVideo      10071af0       amstrmid:strmiids.obj
 0002:00008b00       _IID_IBaseVideoMixer       10071b00       amstrmid:strmiids.obj
 0002:00008b10       _CLSID_QualityProperties   10071b10       amstrmid:strmiids.obj
 0002:00008b20       _CLSID_PerformanceProperties 10071b20       amstrmid:strmiids.obj
 0002:00008b30       _CLSID_DirectDrawProperties 10071b30       amstrmid:strmiids.obj
 0002:00008b40       _FORMAT_DvInfo             10071b40       amstrmid:strmiids.obj
 0002:00008b50       _FORMAT_MPEGStreams        10071b50       amstrmid:strmiids.obj
 0002:00008b60       _FORMAT_MPEGVideo          10071b60       amstrmid:strmiids.obj
 0002:00008b70       _FORMAT_WaveFormatEx       10071b70       amstrmid:strmiids.obj
 0002:00008b80       _FORMAT_VideoInfo2         10071b80       amstrmid:strmiids.obj
 0002:00008b90       _FORMAT_VideoInfo          10071b90       amstrmid:strmiids.obj
 0002:00008ba0       _FORMAT_None               10071ba0       amstrmid:strmiids.obj
 0002:00008bb0       _CLSID_SmartTee            10071bb0       amstrmid:strmiids.obj
 0002:00008bc0       _CLSID_DVDState            10071bc0       amstrmid:strmiids.obj
 0002:00008bd0       _CLSID_DVDNavigator        10071bd0       amstrmid:strmiids.obj
 0002:00008be0       _CLSID_DvdGraphBuilder     10071be0       amstrmid:strmiids.obj
 0002:00008bf0       _CLSID_MediaPropertyBag    10071bf0       amstrmid:strmiids.obj
 0002:00008c00       _CLSID_MemoryAllocator     10071c00       amstrmid:strmiids.obj
 0002:00008c10       _CLSID_FilterMapper2       10071c10       amstrmid:strmiids.obj
 0002:00008c20       _CLSID_MediaMultiplexerCategory 10071c20       amstrmid:strmiids.obj
 0002:00008c30       _CLSID_MediaEncoderCategory 10071c30       amstrmid:strmiids.obj
 0002:00008c40       _CLSID_DVDHWDecodersCategory 10071c40       amstrmid:strmiids.obj
 0002:00008c50       _CLSID_ActiveMovieCategories 10071c50       amstrmid:strmiids.obj
 0002:00008c60       _CLSID_DeviceControlCategory 10071c60       amstrmid:strmiids.obj
 0002:00008c70       _CLSID_TransmitCategory    10071c70       amstrmid:strmiids.obj
 0002:00008c80       _CLSID_CMidiOutClassManager 10071c80       amstrmid:strmiids.obj
 0002:00008c90       _CLSID_MidiRendererCategory 10071c90       amstrmid:strmiids.obj
 0002:00008ca0       _CLSID_CWaveOutClassManager 10071ca0       amstrmid:strmiids.obj
 0002:00008cb0       _CLSID_AudioRendererCategory 10071cb0       amstrmid:strmiids.obj
 0002:00008cc0       _CLSID_CWaveinClassManager 10071cc0       amstrmid:strmiids.obj
 0002:00008cd0       _CLSID_AudioInputDeviceCategory 10071cd0       amstrmid:strmiids.obj
 0002:00008ce0       _CLSID_CAcmCoClassManager  10071ce0       amstrmid:strmiids.obj
 0002:00008cf0       _CLSID_AudioCompressorCategory 10071cf0       amstrmid:strmiids.obj
 0002:00008d00       _CLSID_CIcmCoClassManager  10071d00       amstrmid:strmiids.obj
 0002:00008d10       _CLSID_VideoCompressorCategory 10071d10       amstrmid:strmiids.obj
 0002:00008d20       _CLSID_CQzFilterClassManager 10071d20       amstrmid:strmiids.obj
 0002:00008d30       _CLSID_LegacyAmFilterCategory 10071d30       amstrmid:strmiids.obj
 0002:00008d40       _CLSID_CVidCapClassManager 10071d40       amstrmid:strmiids.obj
 0002:00008d50       _CLSID_VideoInputDeviceCategory 10071d50       amstrmid:strmiids.obj
 0002:00008d60       _CLSID_CDeviceMoniker      10071d60       amstrmid:strmiids.obj
 0002:00008d70       _CLSID_SystemDeviceEnum    10071d70       amstrmid:strmiids.obj
 0002:00008d80       _CLSID_MJPGEnc             10071d80       amstrmid:strmiids.obj
 0002:00008d90       _CLSID_MjpegDec            10071d90       amstrmid:strmiids.obj
 0002:00008da0       _CLSID_WSTDecoder          10071da0       amstrmid:strmiids.obj
 0002:00008db0       _CLSID_VBISurfaces         10071db0       amstrmid:strmiids.obj
 0002:00008dc0       _CLSID_OverlayMixer        10071dc0       amstrmid:strmiids.obj
 0002:00008dd0       _CLSID_Line21Decoder2      10071dd0       amstrmid:strmiids.obj
 0002:00008de0       _CLSID_Line21Decoder       10071de0       amstrmid:strmiids.obj
 0002:00008df0       _CLSID_SeekingPassThru     10071df0       amstrmid:strmiids.obj
 0002:00008e00       _CLSID_DVMux               10071e00       amstrmid:strmiids.obj
 0002:00008e10       _CLSID_DVSplitter          10071e10       amstrmid:strmiids.obj
 0002:00008e20       _CLSID_DVVideoEnc          10071e20       amstrmid:strmiids.obj
 0002:00008e30       _CLSID_DVVideoCodec        10071e30       amstrmid:strmiids.obj
 0002:00008e40       _CLSID_StreamBufferComposeRecording 10071e40       amstrmid:strmiids.obj
 0002:00008e50       _CLSID_StreamBufferRecordingAttributes 10071e50       amstrmid:strmiids.obj
 0002:00008e60       _CLSID_Mpeg2VideoStreamAnalyzer 10071e60       amstrmid:strmiids.obj
 0002:00008e70       _CLSID_StreamBufferConfig  10071e70       amstrmid:strmiids.obj
 0002:00008e80       _CLSID_StreamBufferSource  10071e80       amstrmid:strmiids.obj
 0002:00008e90       _CLSID_StreamBufferSink    10071e90       amstrmid:strmiids.obj
 0002:00008ea0       _CLSID_MMSPLITTER          10071ea0       amstrmid:strmiids.obj
 0002:00008eb0       _CLSID_MPEG2Demultiplexer  10071eb0       amstrmid:strmiids.obj
 0002:00008ec0       _CLSID_WMAsfWriter         10071ec0       amstrmid:strmiids.obj
 0002:00008ed0       _CLSID_WMAsfReader         10071ed0       amstrmid:strmiids.obj
 0002:00008ee0       _CLSID_AVIMIDIRender       10071ee0       amstrmid:strmiids.obj
 0002:00008ef0       _CLSID_AviMuxProptyPage1   10071ef0       amstrmid:strmiids.obj
 0002:00008f00       _CLSID_AviMuxProptyPage    10071f00       amstrmid:strmiids.obj
 0002:00008f10       _CLSID_AviDest             10071f10       amstrmid:strmiids.obj
 0002:00008f20       _CLSID_FileWriter          10071f20       amstrmid:strmiids.obj
 0002:00008f30       _CLSID_AVICo               10071f30       amstrmid:strmiids.obj
 0002:00008f40       _CLSID_PersistMonikerPID   10071f40       amstrmid:strmiids.obj
 0002:00008f50       _CLSID_URLReader           10071f50       amstrmid:strmiids.obj
 0002:00008f60       _CLSID_AsyncReader         10071f60       amstrmid:strmiids.obj
 0002:00008f70       _CLSID_ACMWrapper          10071f70       amstrmid:strmiids.obj
 0002:00008f80       _CLSID_AVIDraw             10071f80       amstrmid:strmiids.obj
 0002:00008f90       _CLSID_AVIDec              10071f90       amstrmid:strmiids.obj
 0002:00008fa0       _CLSID_AudioInputMixerProperties 10071fa0       amstrmid:strmiids.obj
 0002:00008fb0       _CLSID_AudioRecord         10071fb0       amstrmid:strmiids.obj
 0002:00008fc0       _CLSID_DSoundRender        10071fc0       amstrmid:strmiids.obj
 0002:00008fd0       _CLSID_AudioProperties     10071fd0       amstrmid:strmiids.obj
 0002:00008fe0       _CLSID_AudioRender         10071fe0       amstrmid:strmiids.obj
 0002:00008ff0       _CLSID_ModexRenderer       10071ff0       amstrmid:strmiids.obj
 0002:00009000       _CLSID_Dither              10072000       amstrmid:strmiids.obj
 0002:00009010       _CLSID_Colour              10072010       amstrmid:strmiids.obj
 0002:00009020       _CLSID_VideoRenderer       10072020       amstrmid:strmiids.obj
 0002:00009030       _CLSID_AVIDoc              10072030       amstrmid:strmiids.obj
 0002:00009040       _CLSID_QTDec               10072040       amstrmid:strmiids.obj
 0002:00009050       _CLSID_QuickTimeParser     10072050       amstrmid:strmiids.obj
 0002:00009060       _CLSID_MOVReader           10072060       amstrmid:strmiids.obj
 0002:00009070       _CLSID_FGControl           10072070       amstrmid:strmiids.obj
 0002:00009080       _CLSID_CaptureProperties   10072080       amstrmid:strmiids.obj
 0002:00009090       _CLSID_VfwCapture          10072090       amstrmid:strmiids.obj
 0002:000090a0       _CLSID_AviReader           100720a0       amstrmid:strmiids.obj
 0002:000090b0       _CLSID_AviSplitter         100720b0       amstrmid:strmiids.obj
 0002:000090c0       _CLSID_InfTee              100720c0       amstrmid:strmiids.obj
 0002:000090d0       _CLSID_TextRender          100720d0       amstrmid:strmiids.obj
 0002:000090e0       _CLSID_CMpegAudioCodec     100720e0       amstrmid:strmiids.obj
 0002:000090f0       _CLSID_CMpegVideoCodec     100720f0       amstrmid:strmiids.obj
 0002:00009100       _CLSID_MPEG1Splitter       10072100       amstrmid:strmiids.obj
 0002:00009110       _CLSID_MPEG1PacketPlayer   10072110       amstrmid:strmiids.obj
 0002:00009120       _CLSID_FileSource          10072120       amstrmid:strmiids.obj
 0002:00009130       _CLSID_MPEG1Doc            10072130       amstrmid:strmiids.obj
 0002:00009140       _CLSID_FilterGraphNoThread 10072140       amstrmid:strmiids.obj
 0002:00009150       _CLSID_FilterGraph         10072150       amstrmid:strmiids.obj
 0002:00009160       _CLSID_FilterMapper        10072160       amstrmid:strmiids.obj
 0002:00009170       _CLSID_SystemClock         10072170       amstrmid:strmiids.obj
 0002:00009180       _CLSID_ProtoFilterGraph    10072180       amstrmid:strmiids.obj
 0002:00009190       _CLSID_CaptureGraphBuilder2 10072190       amstrmid:strmiids.obj
 0002:000091a0       _CLSID_CaptureGraphBuilder 100721a0       amstrmid:strmiids.obj
 0002:000091b0       _MEDIASUBTYPE_VPVBI        100721b0       amstrmid:strmiids.obj
 0002:000091c0       _MEDIASUBTYPE_VPVideo      100721c0       amstrmid:strmiids.obj
 0002:000091d0       _MEDIASUBTYPE_DssAudio     100721d0       amstrmid:strmiids.obj
 0002:000091e0       _MEDIASUBTYPE_DssVideo     100721e0       amstrmid:strmiids.obj
 0002:000091f0       _MEDIASUBTYPE_SPDIF_TAG_241h 100721f0       amstrmid:strmiids.obj
 0002:00009200       _MEDIASUBTYPE_RAW_SPORT    10072200       amstrmid:strmiids.obj
 0002:00009210       _MEDIASUBTYPE_DOLBY_AC3_SPDIF 10072210       amstrmid:strmiids.obj
 0002:00009220       _MEDIASUBTYPE_IEEE_FLOAT   10072220       amstrmid:strmiids.obj
 0002:00009230       _MEDIASUBTYPE_DRM_Audio    10072230       amstrmid:strmiids.obj
 0002:00009240       _MEDIASUBTYPE_TELETEXT     10072240       amstrmid:strmiids.obj
 0002:00009250       _MEDIASUBTYPE_Line21_VBIRawData 10072250       amstrmid:strmiids.obj
 0002:00009260       _MEDIASUBTYPE_Line21_GOPPacket 10072260       amstrmid:strmiids.obj
 0002:00009270       _MEDIASUBTYPE_Line21_BytePair 10072270       amstrmid:strmiids.obj
 0002:00009280       _MEDIASUBTYPE_dvh1         10072280       amstrmid:strmiids.obj
 0002:00009290       _MEDIASUBTYPE_dv50         10072290       amstrmid:strmiids.obj
 0002:000092a0       _MEDIASUBTYPE_dv25         100722a0       amstrmid:strmiids.obj
 0002:000092b0       _MEDIASUBTYPE_dvsl         100722b0       amstrmid:strmiids.obj
 0002:000092c0       _MEDIASUBTYPE_dvhd         100722c0       amstrmid:strmiids.obj
 0002:000092d0       _MEDIASUBTYPE_dvsd         100722d0       amstrmid:strmiids.obj
 0002:000092e0       _MEDIASUBTYPE_AIFF         100722e0       amstrmid:strmiids.obj
 0002:000092f0       _MEDIASUBTYPE_AU           100722f0       amstrmid:strmiids.obj
 0002:00009300       _MEDIASUBTYPE_WAVE         10072300       amstrmid:strmiids.obj
 0002:00009310       _MEDIASUBTYPE_PCM          10072310       amstrmid:strmiids.obj
 0002:00009320       _MEDIASUBTYPE_PCMAudio_Obsolete 10072320       amstrmid:strmiids.obj
 0002:00009330       _MEDIASUBTYPE_QTJpeg       10072330       amstrmid:strmiids.obj
 0002:00009340       _MEDIASUBTYPE_QTRle        10072340       amstrmid:strmiids.obj
 0002:00009350       _MEDIASUBTYPE_QTSmc        10072350       amstrmid:strmiids.obj
 0002:00009360       _MEDIASUBTYPE_QTRpza       10072360       amstrmid:strmiids.obj
 0002:00009370       _MEDIASUBTYPE_QTMovie      10072370       amstrmid:strmiids.obj
 0002:00009380       _MEDIASUBTYPE_Asf          10072380       amstrmid:strmiids.obj
 0002:00009390       _MEDIASUBTYPE_Avi          10072390       amstrmid:strmiids.obj
 0002:000093a0       _MEDIASUBTYPE_MPEG1Audio   100723a0       amstrmid:strmiids.obj
 0002:000093b0       _MEDIASUBTYPE_MPEG1Video   100723b0       amstrmid:strmiids.obj
 0002:000093c0       _MEDIASUBTYPE_MPEG1VideoCD 100723c0       amstrmid:strmiids.obj
 0002:000093d0       _MEDIASUBTYPE_MPEG1System  100723d0       amstrmid:strmiids.obj
 0002:000093e0       _MEDIATYPE_MPEG1SystemStream 100723e0       amstrmid:strmiids.obj
 0002:000093f0       _MEDIASUBTYPE_MPEG1AudioPayload 100723f0       amstrmid:strmiids.obj
 0002:00009400       _MEDIASUBTYPE_MPEG1Payload 10072400       amstrmid:strmiids.obj
 0002:00009410       _MEDIASUBTYPE_MPEG1Packet  10072410       amstrmid:strmiids.obj
 0002:00009420       _MEDIASUBTYPE_Overlay      10072420       amstrmid:strmiids.obj
 0002:00009430       _MEDIASUBTYPE_S342         10072430       amstrmid:strmiids.obj
 0002:00009440       _MEDIASUBTYPE_S340         10072440       amstrmid:strmiids.obj
 0002:00009450       _MEDIASUBTYPE_IMC4         10072450       amstrmid:strmiids.obj
 0002:00009460       _MEDIASUBTYPE_IMC3         10072460       amstrmid:strmiids.obj
 0002:00009470       _MEDIASUBTYPE_IMC2         10072470       amstrmid:strmiids.obj
 0002:00009480       _MEDIASUBTYPE_IMC1         10072480       amstrmid:strmiids.obj
 0002:00009490       _MEDIASUBTYPE_NV12         10072490       amstrmid:strmiids.obj
 0002:000094a0       _MEDIASUBTYPE_YV12         100724a0       amstrmid:strmiids.obj
 0002:000094b0       _MEDIASUBTYPE_ARGB1555_D3D_DX9_RT 100724b0       amstrmid:strmiids.obj
 0002:000094c0       _MEDIASUBTYPE_ARGB4444_D3D_DX9_RT 100724c0       amstrmid:strmiids.obj
 0002:000094d0       _MEDIASUBTYPE_ARGB32_D3D_DX9_RT 100724d0       amstrmid:strmiids.obj
 0002:000094e0       _MEDIASUBTYPE_RGB16_D3D_DX9_RT 100724e0       amstrmid:strmiids.obj
 0002:000094f0       _MEDIASUBTYPE_RGB32_D3D_DX9_RT 100724f0       amstrmid:strmiids.obj
 0002:00009500       _MEDIASUBTYPE_ARGB1555_D3D_DX7_RT 10072500       amstrmid:strmiids.obj
 0002:00009510       _MEDIASUBTYPE_ARGB4444_D3D_DX7_RT 10072510       amstrmid:strmiids.obj
 0002:00009520       _MEDIASUBTYPE_ARGB32_D3D_DX7_RT 10072520       amstrmid:strmiids.obj
 0002:00009530       _MEDIASUBTYPE_RGB16_D3D_DX7_RT 10072530       amstrmid:strmiids.obj
 0002:00009540       _MEDIASUBTYPE_RGB32_D3D_DX7_RT 10072540       amstrmid:strmiids.obj
 0002:00009550       _MEDIASUBTYPE_IA44         10072550       amstrmid:strmiids.obj
 0002:00009560       _MEDIASUBTYPE_AI44         10072560       amstrmid:strmiids.obj
 0002:00009570       _MEDIASUBTYPE_AYUV         10072570       amstrmid:strmiids.obj
 0002:00009580       _MEDIASUBTYPE_A2B10G10R10  10072580       amstrmid:strmiids.obj
 0002:00009590       _MEDIASUBTYPE_A2R10G10B10  10072590       amstrmid:strmiids.obj
 0002:000095a0       _MEDIASUBTYPE_ARGB32       100725a0       amstrmid:strmiids.obj
 0002:000095b0       _MEDIASUBTYPE_ARGB4444     100725b0       amstrmid:strmiids.obj
 0002:000095c0       _MEDIASUBTYPE_ARGB1555     100725c0       amstrmid:strmiids.obj
 0002:000095d0       _MEDIASUBTYPE_RGB32        100725d0       amstrmid:strmiids.obj
 0002:000095e0       _MEDIASUBTYPE_RGB24        100725e0       amstrmid:strmiids.obj
 0002:000095f0       _MEDIASUBTYPE_RGB555       100725f0       amstrmid:strmiids.obj
 0002:00009600       _MEDIASUBTYPE_RGB565       10072600       amstrmid:strmiids.obj
 0002:00009610       _MEDIASUBTYPE_RGB8         10072610       amstrmid:strmiids.obj
 0002:00009620       _MEDIASUBTYPE_RGB4         10072620       amstrmid:strmiids.obj
 0002:00009630       _MEDIASUBTYPE_RGB1         10072630       amstrmid:strmiids.obj
 0002:00009640       _MEDIASUBTYPE_MDVF         10072640       amstrmid:strmiids.obj
 0002:00009650       _MEDIASUBTYPE_DVSD         10072650       amstrmid:strmiids.obj
 0002:00009660       _MEDIASUBTYPE_DVCS         10072660       amstrmid:strmiids.obj
 0002:00009670       _MEDIASUBTYPE_Plum         10072670       amstrmid:strmiids.obj
 0002:00009680       _MEDIASUBTYPE_IJPG         10072680       amstrmid:strmiids.obj
 0002:00009690       _MEDIASUBTYPE_CFCC         10072690       amstrmid:strmiids.obj
 0002:000096a0       _MEDIASUBTYPE_WAKE         100726a0       amstrmid:strmiids.obj
 0002:000096b0       _MEDIASUBTYPE_TVMJ         100726b0       amstrmid:strmiids.obj
 0002:000096c0       _MEDIASUBTYPE_MJPG         100726c0       amstrmid:strmiids.obj
 0002:000096d0       _MEDIASUBTYPE_CPLA         100726d0       amstrmid:strmiids.obj
 0002:000096e0       _MEDIASUBTYPE_IF09         100726e0       amstrmid:strmiids.obj
 0002:000096f0       _MEDIASUBTYPE_CLJR         100726f0       amstrmid:strmiids.obj
 0002:00009700       _MEDIASUBTYPE_Y211         10072700       amstrmid:strmiids.obj
 0002:00009710       _MEDIASUBTYPE_UYVY         10072710       amstrmid:strmiids.obj
 0002:00009720       _MEDIASUBTYPE_YVYU         10072720       amstrmid:strmiids.obj
 0002:00009730       _MEDIASUBTYPE_YUY2         10072730       amstrmid:strmiids.obj
 0002:00009740       _MEDIASUBTYPE_Y41P         10072740       amstrmid:strmiids.obj
 0002:00009750       _MEDIASUBTYPE_Y411         10072750       amstrmid:strmiids.obj
 0002:00009760       _MEDIASUBTYPE_YVU9         10072760       amstrmid:strmiids.obj
 0002:00009770       _MEDIASUBTYPE_IYUV         10072770       amstrmid:strmiids.obj
 0002:00009780       _MEDIASUBTYPE_YUYV         10072780       amstrmid:strmiids.obj
 0002:00009790       _MEDIASUBTYPE_CLPL         10072790       amstrmid:strmiids.obj
 0002:000097a0       _MEDIATYPE_URL_STREAM      100727a0       amstrmid:strmiids.obj
 0002:000097b0       _MEDIATYPE_LMRT            100727b0       amstrmid:strmiids.obj
 0002:000097c0       _MEDIATYPE_Timecode        100727c0       amstrmid:strmiids.obj
 0002:000097d0       _MEDIATYPE_VBI             100727d0       amstrmid:strmiids.obj
 0002:000097e0       _MEDIATYPE_AUXLine21Data   100727e0       amstrmid:strmiids.obj
 0002:000097f0       _MEDIATYPE_ScriptCommand   100727f0       amstrmid:strmiids.obj
 0002:00009800       _MEDIATYPE_File            10072800       amstrmid:strmiids.obj
 0002:00009810       _MEDIATYPE_Interleaved     10072810       amstrmid:strmiids.obj
 0002:00009820       _MEDIATYPE_Stream          10072820       amstrmid:strmiids.obj
 0002:00009830       _MEDIATYPE_Midi            10072830       amstrmid:strmiids.obj
 0002:00009840       _MEDIATYPE_Text            10072840       amstrmid:strmiids.obj
 0002:00009850       _MEDIATYPE_Audio           10072850       amstrmid:strmiids.obj
 0002:00009860       _MEDIATYPE_Video           10072860       amstrmid:strmiids.obj
 0002:00009870       _MEDIASUBTYPE_None         10072870       amstrmid:strmiids.obj
 0002:00009880       _CLSID_AMMediaTypeStream   10072880       amstrmid:amstrmid.obj
 0002:00009890       _CLSID_AMAudioData         10072890       amstrmid:amstrmid.obj
 0002:000098a0       _CLSID_AMAudioStream       100728a0       amstrmid:amstrmid.obj
 0002:000098b0       _CLSID_AMDirectDrawStream  100728b0       amstrmid:amstrmid.obj
 0002:000098c0       _MSPID_PrimaryAudio        100728c0       amstrmid:amstrmid.obj
 0002:000098d0       _MSPID_PrimaryVideo        100728d0       amstrmid:amstrmid.obj
 0002:000098e0       _IID_IEnumOLEVERB          100728e0       uuid:oleidl_i.obj
 0002:000098f0       _IID_IDropTarget           100728f0       uuid:oleidl_i.obj
 0002:00009900       _IID_IDropSource           10072900       uuid:oleidl_i.obj
 0002:00009910       _IID_IViewObject2          10072910       uuid:oleidl_i.obj
 0002:00009920       _IID_IViewObject           10072920       uuid:oleidl_i.obj
 0002:00009930       _IID_IContinue             10072930       uuid:oleidl_i.obj
 0002:00009940       _IID_IOleInPlaceSite       10072940       uuid:oleidl_i.obj
 0002:00009950       _IID_IOleInPlaceObject     10072950       uuid:oleidl_i.obj
 0002:00009960       _IID_IOleInPlaceFrame      10072960       uuid:oleidl_i.obj
 0002:00009970       _IID_IOleInPlaceActiveObject 10072970       uuid:oleidl_i.obj
 0002:00009980       _IID_IOleInPlaceUIWindow   10072980       uuid:oleidl_i.obj
 0002:00009990       _IID_IOleItemContainer     10072990       uuid:oleidl_i.obj
 0002:000099a0       _IID_IOleLink              100729a0       uuid:oleidl_i.obj
 0002:000099b0       _IID_IOleWindow            100729b0       uuid:oleidl_i.obj
 0002:000099c0       _IID_IOleObject            100729c0       uuid:oleidl_i.obj
 0002:000099d0       _IID_IOleClientSite        100729d0       uuid:oleidl_i.obj
 0002:000099e0       _IID_IOleContainer         100729e0       uuid:oleidl_i.obj
 0002:000099f0       _IID_IParseDisplayName     100729f0       uuid:oleidl_i.obj
 0002:00009a00       _IID_IOleCacheControl      10072a00       uuid:oleidl_i.obj
 0002:00009a10       _IID_IOleCache2            10072a10       uuid:oleidl_i.obj
 0002:00009a20       _IID_IOleCache             10072a20       uuid:oleidl_i.obj
 0002:00009a30       _IID_IOleAdviseHolder      10072a30       uuid:oleidl_i.obj
 0002:00009a40       _IID_IClassFactory         10072a40       uuid:unknwn_i.obj
 0002:00009a50       _IID_AsyncIUnknown         10072a50       uuid:unknwn_i.obj
 0002:00009a60       _IID_IUnknown              10072a60       uuid:unknwn_i.obj
 0002:00009a70       _IID_IInitializeSpy        10072a70       uuid:objidl_i.obj
 0002:00009a80       _IID_IProcessInitControl   10072a80       uuid:objidl_i.obj
 0002:00009a90       _IID_IComThreadingInfo     10072a90       uuid:objidl_i.obj
 0002:00009aa0       _IID_ISurrogateService     10072aa0       uuid:objidl_i.obj
 0002:00009ab0       _IID_IProcessLock          10072ab0       uuid:objidl_i.obj
 0002:00009ac0       _IID_IObjContext           10072ac0       uuid:objidl_i.obj
 0002:00009ad0       _IID_IContext              10072ad0       uuid:objidl_i.obj
 0002:00009ae0       _IID_IEnumContextProps     10072ae0       uuid:objidl_i.obj
 0002:00009af0       _IID_IDummyHICONIncluder   10072af0       uuid:objidl_i.obj
 0002:00009b00       _IID_IThumbnailExtractor   10072b00       uuid:objidl_i.obj
 0002:00009b10       _IID_AsyncIPipeDouble      10072b10       uuid:objidl_i.obj
 0002:00009b20       _IID_IPipeDouble           10072b20       uuid:objidl_i.obj
 0002:00009b30       _IID_AsyncIPipeLong        10072b30       uuid:objidl_i.obj
 0002:00009b40       _IID_IPipeLong             10072b40       uuid:objidl_i.obj
 0002:00009b50       _IID_AsyncIPipeByte        10072b50       uuid:objidl_i.obj
 0002:00009b60       _IID_IPipeByte             10072b60       uuid:objidl_i.obj
 0002:00009b70       _IID_IAddrExclusionControl 10072b70       uuid:objidl_i.obj
 0002:00009b80       _IID_IAddrTrackingControl  10072b80       uuid:objidl_i.obj
 0002:00009b90       _IID_IForegroundTransfer   10072b90       uuid:objidl_i.obj
 0002:00009ba0       _IID_IUrlMon               10072ba0       uuid:objidl_i.obj
 0002:00009bb0       _IID_IWaitMultiple         10072bb0       uuid:objidl_i.obj
 0002:00009bc0       _IID_IReleaseMarshalBuffers 10072bc0       uuid:objidl_i.obj
 0002:00009bd0       _IID_IRpcHelper            10072bd0       uuid:objidl_i.obj
 0002:00009be0       _IID_ICallFactory          10072be0       uuid:objidl_i.obj
 0002:00009bf0       _IID_IAsyncManager         10072bf0       uuid:objidl_i.obj
 0002:00009c00       _IID_ICancelMethodCalls    10072c00       uuid:objidl_i.obj
 0002:00009c10       _IID_ISynchronizeMutex     10072c10       uuid:objidl_i.obj
 0002:00009c20       _IID_ISynchronizeContainer 10072c20       uuid:objidl_i.obj
 0002:00009c30       _IID_ISynchronizeEvent     10072c30       uuid:objidl_i.obj
 0002:00009c40       _IID_ISynchronizeHandle    10072c40       uuid:objidl_i.obj
 0002:00009c50       _IID_ISynchronize          10072c50       uuid:objidl_i.obj
 0002:00009c60       _IID_IDirectWriterLock     10072c60       uuid:objidl_i.obj
 0002:00009c70       _IID_IGlobalInterfaceTable 10072c70       uuid:objidl_i.obj
 0002:00009c80       _IID_ISurrogate            10072c80       uuid:objidl_i.obj
 0002:00009c90       _IID_IOplockStorage        10072c90       uuid:objidl_i.obj
 0002:00009ca0       _IID_ITimeAndNoticeControl 10072ca0       uuid:objidl_i.obj
 0002:00009cb0       _IID_IBlockingLock         10072cb0       uuid:objidl_i.obj
 0002:00009cc0       _IID_ILayoutStorage        10072cc0       uuid:objidl_i.obj
 0002:00009cd0       _IID_IProgressNotify       10072cd0       uuid:objidl_i.obj
 0002:00009ce0       _IID_IFillLockBytes        10072ce0       uuid:objidl_i.obj
 0002:00009cf0       _IID_IRpcOptions           10072cf0       uuid:objidl_i.obj
 0002:00009d00       _IID_IClassActivator       10072d00       uuid:objidl_i.obj
 0002:00009d10       _IID_IServerSecurity       10072d10       uuid:objidl_i.obj
 0002:00009d20       _IID_IClientSecurity       10072d20       uuid:objidl_i.obj
 0002:00009d30       _IID_IChannelHook          10072d30       uuid:objidl_i.obj
 0002:00009d40       _IID_IPSFactoryBuffer      10072d40       uuid:objidl_i.obj
 0002:00009d50       _IID_IRpcStubBuffer        10072d50       uuid:objidl_i.obj
 0002:00009d60       _IID_IRpcProxyBuffer       10072d60       uuid:objidl_i.obj
 0002:00009d70       _IID_IRpcSyntaxNegotiate   10072d70       uuid:objidl_i.obj
 0002:00009d80       _IID_IRpcChannelBuffer3    10072d80       uuid:objidl_i.obj
 0002:00009d90       _IID_IAsyncRpcChannelBuffer 10072d90       uuid:objidl_i.obj
 0002:00009da0       _IID_IRpcChannelBuffer2    10072da0       uuid:objidl_i.obj
 0002:00009db0       _IID_IRpcChannelBuffer     10072db0       uuid:objidl_i.obj
 0002:00009dc0       _IID_IMessageFilter        10072dc0       uuid:objidl_i.obj
 0002:00009dd0       _IID_IDataAdviseHolder     10072dd0       uuid:objidl_i.obj
 0002:00009de0       _IID_IDataObject           10072de0       uuid:objidl_i.obj
 0002:00009df0       _IID_AsyncIAdviseSink2     10072df0       uuid:objidl_i.obj
 0002:00009e00       _IID_IAdviseSink2          10072e00       uuid:objidl_i.obj
 0002:00009e10       _IID_AsyncIAdviseSink      10072e10       uuid:objidl_i.obj
 0002:00009e20       _IID_IAdviseSink           10072e20       uuid:objidl_i.obj
 0002:00009e30       _IID_IRootStorage          10072e30       uuid:objidl_i.obj
 0002:00009e40       _IID_IEnumSTATDATA         10072e40       uuid:objidl_i.obj
 0002:00009e50       _IID_IEnumFORMATETC        10072e50       uuid:objidl_i.obj
 0002:00009e60       _IID_ILockBytes            10072e60       uuid:objidl_i.obj
 0002:00009e70       _IID_IPersistStorage       10072e70       uuid:objidl_i.obj
 0002:00009e80       _IID_IPersistFile          10072e80       uuid:objidl_i.obj
 0002:00009e90       _IID_IStorage              10072e90       uuid:objidl_i.obj
 0002:00009ea0       _IID_IEnumSTATSTG          10072ea0       uuid:objidl_i.obj
 0002:00009eb0       _IID_IStream               10072eb0       uuid:objidl_i.obj
 0002:00009ec0       _IID_ISequentialStream     10072ec0       uuid:objidl_i.obj
 0002:00009ed0       _IID_IEnumString           10072ed0       uuid:objidl_i.obj
 0002:00009ee0       _IID_IROTData              10072ee0       uuid:objidl_i.obj
 0002:00009ef0       _IID_IMoniker              10072ef0       uuid:objidl_i.obj
 0002:00009f00       _IID_IPersistStream        10072f00       uuid:objidl_i.obj
 0002:00009f10       _IID_IPersist              10072f10       uuid:objidl_i.obj
 0002:00009f20       _IID_IRunningObjectTable   10072f20       uuid:objidl_i.obj
 0002:00009f30       _IID_IRunnableObject       10072f30       uuid:objidl_i.obj
 0002:00009f40       _IID_IEnumMoniker          10072f40       uuid:objidl_i.obj
 0002:00009f50       _IID_IBindCtx              10072f50       uuid:objidl_i.obj
 0002:00009f60       _IID_IEnumUnknown          10072f60       uuid:objidl_i.obj
 0002:00009f70       _IID_IInternalUnknown      10072f70       uuid:objidl_i.obj
 0002:00009f80       _IID_AsyncIMultiQI         10072f80       uuid:objidl_i.obj
 0002:00009f90       _IID_IMultiQI              10072f90       uuid:objidl_i.obj
 0002:00009fa0       _IID_IExternalConnection   10072fa0       uuid:objidl_i.obj
 0002:00009fb0       _IID_IStdMarshalInfo       10072fb0       uuid:objidl_i.obj
 0002:00009fc0       _IID_IMallocSpy            10072fc0       uuid:objidl_i.obj
 0002:00009fd0       _IID_IMalloc               10072fd0       uuid:objidl_i.obj
 0002:00009fe0       _IID_IMarshal2             10072fe0       uuid:objidl_i.obj
 0002:00009ff0       _IID_IMarshal              10072ff0       uuid:objidl_i.obj
 0002:0000a004       ??_7type_info@@6B@         10073004       MSVCRT:ti_inst.obj
 0002:0000a008       ??_C@_0N@FFJGBINN@AuthenticAMD?$AA@ 10073008       MSVCRT:cpu_disp.obj
 0002:0000a018       __load_config_used         10073018       MSVCRT:loadcfg.obj
 0002:0000a0b4       ??_R1A@?0A@A@Anode@@8      100730b4       _Display.obj
 0002:0000a0cc       ??_R1A@?0A@A@Abitmap@@8    100730cc       _Display.obj
 0002:0000a0e4       ??_R1A@?0A@A@NativeBitmap@@8 100730e4       _Display.obj
 0002:0000a0fc       ??_R2NativeBitmap@@8       100730fc       _Display.obj
 0002:0000a10c       ??_R3NativeBitmap@@8       1007310c       _Display.obj
 0002:0000a11c       ??_R4NativeBitmap@@6B@     1007311c       _Display.obj
 0002:0000a130       ??_R1A@?0A@A@SPlayer@@8    10073130       PlayerWnd.obj
 0002:0000a148       ??_R1A@?0A@A@NativePlayerWnd@@8 10073148       PlayerWnd.obj
 0002:0000a160       ??_R2NativePlayerWnd@@8    10073160       PlayerWnd.obj
 0002:0000a16c       ??_R3NativePlayerWnd@@8    1007316c       PlayerWnd.obj
 0002:0000a17c       ??_R4NativePlayerWnd@@6B@  1007317c       PlayerWnd.obj
 0002:0000a190       ??_R2SPlayer@@8            10073190       splayer.obj
 0002:0000a198       ??_R3SPlayer@@8            10073198       splayer.obj
 0002:0000a1a8       ??_R4SPlayer@@6B@          100731a8       splayer.obj
 0002:0000a1bc       ??_R1A@?0A@A@AaviRead@@8   100731bc       avi.obj
 0002:0000a1d4       ??_R2AaviRead@@8           100731d4       avi.obj
 0002:0000a1e0       ??_R3AaviRead@@8           100731e0       avi.obj
 0002:0000a1f0       ??_R4AaviRead@@6B@         100731f0       avi.obj
 0002:0000a204       ??_R1A@?0A@A@Achunk@@8     10073204       avi.obj
 0002:0000a21c       ??_R2Achunk@@8             1007321c       avi.obj
 0002:0000a224       ??_R3Achunk@@8             10073224       avi.obj
 0002:0000a234       ??_R4Achunk@@6B@           10073234       avi.obj
 0002:0000a248       ??_R1A@?0A@A@AaviWrite@@8  10073248       avi.obj
 0002:0000a260       ??_R2AaviWrite@@8          10073260       avi.obj
 0002:0000a26c       ??_R3AaviWrite@@8          1007326c       avi.obj
 0002:0000a27c       ??_R4AaviWrite@@6B@        1007327c       avi.obj
 0002:0000a290       ??_R2Abitmap@@8            10073290       bitmap.obj
 0002:0000a29c       ??_R3Abitmap@@8            1007329c       bitmap.obj
 0002:0000a2ac       ??_R4Abitmap@@6B@          100732ac       bitmap.obj
 0002:0000a2c0       ??_R1A@?0A@A@Afile@@8      100732c0       buffer.obj
 0002:0000a2d8       ??_R2Afile@@8              100732d8       buffer.obj
 0002:0000a2e4       ??_R3Afile@@8              100732e4       buffer.obj
 0002:0000a2f4       ??_R4Afile@@6B@            100732f4       buffer.obj
 0002:0000a308       ??_R1A@?0A@A@Abuffer@@8    10073308       buffer.obj
 0002:0000a320       ??_R2Abuffer@@8            10073320       buffer.obj
 0002:0000a330       ??_R3Abuffer@@8            10073330       buffer.obj
 0002:0000a340       ??_R4Abuffer@@6B@          10073340       buffer.obj
 0002:0000a354       ??_R1A@?0A@A@Aobject@@8    10073354       button.obj
 0002:0000a36c       ??_R1A@?0A@A@Abutton@@8    1007336c       button.obj
 0002:0000a384       ??_R2Abutton@@8            10073384       button.obj
 0002:0000a394       ??_R3Abutton@@8            10073394       button.obj
 0002:0000a3a4       ??_R4Abutton@@6B@          100733a4       button.obj
 0002:0000a3b8       ??_R1A@?0A@A@Ad3d@@8       100733b8       d3d.obj
 0002:0000a3d0       ??_R2Ad3d@@8               100733d0       d3d.obj
 0002:0000a3dc       ??_R3Ad3d@@8               100733dc       d3d.obj
 0002:0000a3ec       ??_R4Ad3d@@6B@             100733ec       d3d.obj
 0002:0000a400       ??_R1A@?0A@A@Asurface@@8   10073400       display.obj
 0002:0000a418       ??_R1A@?0A@A@Adisplay@@8   10073418       display.obj
 0002:0000a430       ??_R2Adisplay@@8           10073430       display.obj
 0002:0000a444       ??_R3Adisplay@@8           10073444       display.obj
 0002:0000a454       ??_R4Adisplay@@6B@         10073454       display.obj
 0002:0000a468       ??_R1A@?0A@A@Aedit@@8      10073468       edit.obj
 0002:0000a480       ??_R2Aedit@@8              10073480       edit.obj
 0002:0000a490       ??_R3Aedit@@8              10073490       edit.obj
 0002:0000a4a0       ??_R4Aedit@@6B@            100734a0       edit.obj
 0002:0000a4b4       ??_R1A@?0A@A@AfileDlg@@8   100734b4       filedlg.obj
 0002:0000a4cc       ??_R2AfileDlg@@8           100734cc       filedlg.obj
 0002:0000a4d8       ??_R3AfileDlg@@8           100734d8       filedlg.obj
 0002:0000a4e8       ??_R4AfileDlg@@6B@         100734e8       filedlg.obj
 0002:0000a4fc       ??_R1A@?0A@A@Afilehd@@8    100734fc       filehd.obj
 0002:0000a514       ??_R2Afilehd@@8            10073514       filehd.obj
 0002:0000a524       ??_R3Afilehd@@8            10073524       filehd.obj
 0002:0000a534       ??_R4Afilehd@@6B@          10073534       filehd.obj
 0002:0000a548       ??_R1A@?0A@A@Afilemem@@8   10073548       filemem.obj
 0002:0000a560       ??_R2Afilemem@@8           10073560       filemem.obj
 0002:0000a570       ??_R3Afilemem@@8           10073570       filemem.obj
 0002:0000a580       ??_R4Afilemem@@6B@         10073580       filemem.obj
 0002:0000a594       ??_R1A@?0A@A@Aflash@@8     10073594       flash.obj
 0002:0000a5ac       ??_R2Aflash@@8             100735ac       flash.obj
 0002:0000a5c0       ??_R3Aflash@@8             100735c0       flash.obj
 0002:0000a5d0       ??_R4Aflash@@6B@           100735d0       flash.obj
 0002:0000a5e4       ??_R1A@?0A@A@Afont@@8      100735e4       font.obj
 0002:0000a5fc       ??_R2Afont@@8              100735fc       font.obj
 0002:0000a608       ??_R3Afont@@8              10073608       font.obj
 0002:0000a618       ??_R4Afont@@6B@            10073618       font.obj
 0002:0000a62c       ??_R4AftpClient@@6BAthread@@@ 1007362c       ftp.obj
 0002:0000a640       ??_R1CA@?0A@A@Athread@@8   10073640       ftp.obj
 0002:0000a658       ??_R1A@?0A@A@AftpClient@@8 10073658       ftp.obj
 0002:0000a670       ??_R2AftpClient@@8         10073670       ftp.obj
 0002:0000a680       ??_R3AftpClient@@8         10073680       ftp.obj
 0002:0000a690       ??_R4AftpClient@@6BAnode@@@ 10073690       ftp.obj
 0002:0000a6a4       ??_R1A@?0A@A@Alib@@8       100736a4       interface.obj
 0002:0000a6bc       ??_R2Alib@@8               100736bc       interface.obj
 0002:0000a6c4       ??_R3Alib@@8               100736c4       interface.obj
 0002:0000a6d4       ??_R4Alib@@6B@             100736d4       interface.obj
 0002:0000a6e8       ??_R1A@?0A@A@Aitem@@8      100736e8       item.obj
 0002:0000a700       ??_R2Aitem@@8              10073700       item.obj
 0002:0000a70c       ??_R3Aitem@@8              1007370c       item.obj
 0002:0000a71c       ??_R4Aitem@@6B@            1007371c       item.obj
 0002:0000a730       ??_R1A@?0A@A@Alist@@8      10073730       list.obj
 0002:0000a748       ??_R2Alist@@8              10073748       list.obj
 0002:0000a75c       ??_R3Alist@@8              1007375c       list.obj
 0002:0000a76c       ??_R4Alist@@6B@            1007376c       list.obj
 0002:0000a780       ??_R1A@?0A@A@Amenu@@8      10073780       menu.obj
 0002:0000a798       ??_R2Amenu@@8              10073798       menu.obj
 0002:0000a7a8       ??_R3Amenu@@8              100737a8       menu.obj
 0002:0000a7b8       ??_R4Amenu@@6B@            100737b8       menu.obj
 0002:0000a7cc       ??_R1A@?0A@A@Amovie@@8     100737cc       movie.obj
 0002:0000a7e4       ??_R2Amovie@@8             100737e4       movie.obj
 0002:0000a7f0       ??_R3Amovie@@8             100737f0       movie.obj
 0002:0000a800       ??_R4Amovie@@6B@           10073800       movie.obj
 0002:0000a814       ??_R1A@?0A@A@Amsgbox@@8    10073814       msgbox.obj
 0002:0000a82c       ??_R2Amsgbox@@8            1007382c       msgbox.obj
 0002:0000a838       ??_R3Amsgbox@@8            10073838       msgbox.obj
 0002:0000a848       ??_R4Amsgbox@@6B@          10073848       msgbox.obj
 0002:0000a85c       ??_R1A@?0A@A@ACI@@8        1007385c       node.obj
 0002:0000a874       ??_R2ACI@@8                10073874       node.obj
 0002:0000a87c       ??_R3ACI@@8                1007387c       node.obj
 0002:0000a88c       ??_R4ACI@@6B@              1007388c       node.obj
 0002:0000a8a0       ??_R2Anode@@8              100738a0       node.obj
 0002:0000a8a8       ??_R3Anode@@8              100738a8       node.obj
 0002:0000a8b8       ??_R4Anode@@6B@            100738b8       node.obj
 0002:0000a8cc       ??_R2Aobject@@8            100738cc       object.obj
 0002:0000a8d8       ??_R3Aobject@@8            100738d8       object.obj
 0002:0000a8e8       ??_R4Aobject@@6B@          100738e8       object.obj
 0002:0000a8fc       ??_R1A@?0A@8Anode@@8       100738fc       oglbitmap.obj
 0002:0000a914       ??_R1A@?0A@A@AoglBitmap@@8 10073914       oglbitmap.obj
 0002:0000a92c       ??_R2AoglBitmap@@8         1007392c       oglbitmap.obj
 0002:0000a938       ??_R3AoglBitmap@@8         10073938       oglbitmap.obj
 0002:0000a948       ??_R4AoglBitmap@@6B@       10073948       oglbitmap.obj
 0002:0000a95c       ??_R1A@?0A@A@Apipe@@8      1007395c       pipe.obj
 0002:0000a974       ??_R2Apipe@@8              10073974       pipe.obj
 0002:0000a984       ??_R3Apipe@@8              10073984       pipe.obj
 0002:0000a994       ??_R4Apipe@@6B@            10073994       pipe.obj
 0002:0000a9a8       ??_R1A@?0A@A@Aplugz@@8     100739a8       plugz.obj
 0002:0000a9c0       ??_R2Aplugz@@8             100739c0       plugz.obj
 0002:0000a9cc       ??_R3Aplugz@@8             100739cc       plugz.obj
 0002:0000a9dc       ??_R4Aplugz@@6B@           100739dc       plugz.obj
 0002:0000a9f0       ??_R1A@?0A@A@Aregistry@@8  100739f0       registry.obj
 0002:0000aa08       ??_R2Aregistry@@8          10073a08       registry.obj
 0002:0000aa14       ??_R3Aregistry@@8          10073a14       registry.obj
 0002:0000aa24       ??_R4Aregistry@@6B@        10073a24       registry.obj
 0002:0000aa38       ??_R1A@?0A@A@Aresobj@@8    10073a38       resources.obj
 0002:0000aa50       ??_R2Aresobj@@8            10073a50       resources.obj
 0002:0000aa5c       ??_R3Aresobj@@8            10073a5c       resources.obj
 0002:0000aa6c       ??_R4Aresobj@@6B@          10073a6c       resources.obj
 0002:0000aa80       ??_R1A@?0A@A@Aresource@@8  10073a80       resources.obj
 0002:0000aa98       ??_R2Aresource@@8          10073a98       resources.obj
 0002:0000aaa4       ??_R3Aresource@@8          10073aa4       resources.obj
 0002:0000aab4       ??_R4Aresource@@6B@        10073ab4       resources.obj
 0002:0000aac8       ??_R1A@?0A@A@AscrollBar@@8 10073ac8       scrollbar.obj
 0002:0000aae0       ??_R2AscrollBar@@8         10073ae0       scrollbar.obj
 0002:0000aaf0       ??_R3AscrollBar@@8         10073af0       scrollbar.obj
 0002:0000ab00       ??_R4AscrollBar@@6B@       10073b00       scrollbar.obj
 0002:0000ab14       ??_R1A@?0A@A@Asection@@8   10073b14       section.obj
 0002:0000ab2c       ??_R2Asection@@8           10073b2c       section.obj
 0002:0000ab34       ??_R3Asection@@8           10073b34       section.obj
 0002:0000ab44       ??_R4Asection@@6B@         10073b44       section.obj
 0002:0000ab58       ??_R1A@?0A@A@Asegment@@8   10073b58       segment.obj
 0002:0000ab70       ??_R2Asegment@@8           10073b70       segment.obj
 0002:0000ab80       ??_R3Asegment@@8           10073b80       segment.obj
 0002:0000ab90       ??_R4Asegment@@6B@         10073b90       segment.obj
 0002:0000aba4       ??_R1A@?0A@A@AselButton@@8 10073ba4       selButton.obj
 0002:0000abbc       ??_R2AselButton@@8         10073bbc       selButton.obj
 0002:0000abcc       ??_R3AselButton@@8         10073bcc       selButton.obj
 0002:0000abdc       ??_R4AselButton@@6B@       10073bdc       selButton.obj
 0002:0000abf0       ??_R1A@?0A@A@Aserial@@8    10073bf0       serial.obj
 0002:0000ac08       ??_R2Aserial@@8            10073c08       serial.obj
 0002:0000ac18       ??_R3Aserial@@8            10073c18       serial.obj
 0002:0000ac28       ??_R4Aserial@@6B@          10073c28       serial.obj
 0002:0000ac3c       ??_R1A@?0A@A@Astatic@@8    10073c3c       static.obj
 0002:0000ac54       ??_R2Astatic@@8            10073c54       static.obj
 0002:0000ac68       ??_R3Astatic@@8            10073c68       static.obj
 0002:0000ac78       ??_R4Astatic@@6B@          10073c78       static.obj
 0002:0000ac8c       ??_R2Asurface@@8           10073c8c       surface.obj
 0002:0000ac9c       ??_R3Asurface@@8           10073c9c       surface.obj
 0002:0000acac       ??_R4Asurface@@6B@         10073cac       surface.obj
 0002:0000acc0       ??_R1A@?0A@A@Athread@@8    10073cc0       thread.obj
 0002:0000acd8       ??_R2Athread@@8            10073cd8       thread.obj
 0002:0000ace0       ??_R3Athread@@8            10073ce0       thread.obj
 0002:0000acf0       ??_R4Athread@@6B@          10073cf0       thread.obj
 0002:0000ad04       ??_R1A@?0A@A@AtitleBar@@8  10073d04       titleBar.obj
 0002:0000ad1c       ??_R2AtitleBar@@8          10073d1c       titleBar.obj
 0002:0000ad30       ??_R3AtitleBar@@8          10073d30       titleBar.obj
 0002:0000ad40       ??_R4AtitleBar@@6B@        10073d40       titleBar.obj
 0002:0000ad54       ??_R1A@?0A@A@Atool@@8      10073d54       toolbar.obj
 0002:0000ad6c       ??_R2Atool@@8              10073d6c       toolbar.obj
 0002:0000ad7c       ??_R3Atool@@8              10073d7c       toolbar.obj
 0002:0000ad8c       ??_R4Atool@@6B@            10073d8c       toolbar.obj
 0002:0000ada0       ??_R1A@?0A@A@AtoolBar@@8   10073da0       toolbar.obj
 0002:0000adb8       ??_R2AtoolBar@@8           10073db8       toolbar.obj
 0002:0000adc8       ??_R3AtoolBar@@8           10073dc8       toolbar.obj
 0002:0000add8       ??_R4AtoolBar@@6B@         10073dd8       toolbar.obj
 0002:0000adec       ??_R1A@?0A@A@Atooltips@@8  10073dec       tooltips.obj
 0002:0000ae04       ??_R2Atooltips@@8          10073e04       tooltips.obj
 0002:0000ae14       ??_R3Atooltips@@8          10073e14       tooltips.obj
 0002:0000ae24       ??_R4Atooltips@@6B@        10073e24       tooltips.obj
 0002:0000ae38       ??_R1A@?0A@A@AtreeView@@8  10073e38       treeView.obj
 0002:0000ae50       ??_R2AtreeView@@8          10073e50       treeView.obj
 0002:0000ae60       ??_R3AtreeView@@8          10073e60       treeView.obj
 0002:0000ae70       ??_R4AtreeView@@6B@        10073e70       treeView.obj
 0002:0000ae84       ??_R1A@?0A@A@IUnknown@@8   10073e84       window.obj
 0002:0000ae9c       ??_R1A@?0A@A@IDropTarget@@8 10073e9c       window.obj
 0002:0000aeb4       ??_R1A@?0A@A@Adroptarget@@8 10073eb4       window.obj
 0002:0000aecc       ??_R2Adroptarget@@8        10073ecc       window.obj
 0002:0000aedc       ??_R3Adroptarget@@8        10073edc       window.obj
 0002:0000aeec       ??_R4Adroptarget@@6B@      10073eec       window.obj
 0002:0000af00       ??_R1A@?0A@A@IDropSource@@8 10073f00       window.obj
 0002:0000af18       ??_R1A@?0A@A@Adropsource@@8 10073f18       window.obj
 0002:0000af30       ??_R2Adropsource@@8        10073f30       window.obj
 0002:0000af40       ??_R3Adropsource@@8        10073f40       window.obj
 0002:0000af50       ??_R4Adropsource@@6B@      10073f50       window.obj
 0002:0000af64       ??_R1A@?0A@A@Aidle@@8      10073f64       window.obj
 0002:0000af7c       ??_R2Aidle@@8              10073f7c       window.obj
 0002:0000af84       ??_R3Aidle@@8              10073f84       window.obj
 0002:0000af94       ??_R4Aidle@@6B@            10073f94       window.obj
 0002:0000afa8       ??_R1A@?0A@A@IDataObject@@8 10073fa8       window.obj
 0002:0000afc0       ??_R1A@?0A@A@AdropString@@8 10073fc0       window.obj
 0002:0000afd8       ??_R2AdropString@@8        10073fd8       window.obj
 0002:0000afe8       ??_R3AdropString@@8        10073fe8       window.obj
 0002:0000aff8       ??_R4AdropString@@6B@      10073ff8       window.obj
 0002:0000b00c       ??_R1A@?0A@A@Awindow@@8    1007400c       window.obj
 0002:0000b024       ??_R2Awindow@@8            10074024       window.obj
 0002:0000b038       ??_R3Awindow@@8            10074038       window.obj
 0002:0000b048       ??_R4Awindow@@6B@          10074048       window.obj
 0002:0000b05c       ??_R1A@?0A@A@type_info@@8  1007405c       MSVCRT:ti_inst.obj
 0002:0000b074       ??_R2type_info@@8          10074074       MSVCRT:ti_inst.obj
 0002:0000b07c       ??_R3type_info@@8          1007407c       MSVCRT:ti_inst.obj
 0002:0000b08c       ??_R4type_info@@6B@        1007408c       MSVCRT:ti_inst.obj
 0002:0000b0a0       ___safe_se_handler_table   100740a0       <linker-defined>
 0002:0000b25c       ___rtc_iaa                 1007425c       MSVCRT:initsect.obj
 0002:0000b260       ___rtc_izz                 10074260       MSVCRT:initsect.obj
 0002:0000b264       ___rtc_taa                 10074264       MSVCRT:initsect.obj
 0002:0000b268       ___rtc_tzz                 10074268       MSVCRT:initsect.obj
 0002:0000c7b4       __IMPORT_DESCRIPTOR_WINMM  100757b4       winmm:WINMM.dll
 0002:0000c7c8       __IMPORT_DESCRIPTOR_DDRAW  100757c8       ddraw:DDRAW.dll
 0002:0000c7dc       __IMPORT_DESCRIPTOR_OPENGL32 100757dc       opengl32:OPENGL32.dll
 0002:0000c7f0       __IMPORT_DESCRIPTOR_d3d9   100757f0       d3d9:d3d9.dll
 0002:0000c804       __IMPORT_DESCRIPTOR_MSVFW32 10075804       Vfw32:MSVFW32.dll
 0002:0000c818       __IMPORT_DESCRIPTOR_MSACM32 10075818       msacm32:MSACM32.dll
 0002:0000c82c       __IMPORT_DESCRIPTOR_WS2_32 1007582c       ws2_32:WS2_32.dll
 0002:0000c840       __IMPORT_DESCRIPTOR_KERNEL32 10075840       kernel32:KERNEL32.dll
 0002:0000c854       __IMPORT_DESCRIPTOR_USER32 10075854       user32:USER32.dll
 0002:0000c868       __IMPORT_DESCRIPTOR_GDI32  10075868       gdi32:GDI32.dll
 0002:0000c87c       __IMPORT_DESCRIPTOR_comdlg32 1007587c       comdlg32:comdlg32.dll
 0002:0000c890       __IMPORT_DESCRIPTOR_ADVAPI32 10075890       advapi32:ADVAPI32.dll
 0002:0000c8a4       __IMPORT_DESCRIPTOR_SHELL32 100758a4       shell32:SHELL32.dll
 0002:0000c8b8       __IMPORT_DESCRIPTOR_ole32  100758b8       ole32:ole32.dll
 0002:0000c8cc       __IMPORT_DESCRIPTOR_MSVCR80 100758cc       MSVCRT:MSVCR80.dll
 0002:0000c8e0       __NULL_IMPORT_DESCRIPTOR   100758e0       winmm:WINMM.dll
 0003:00000000       ___xc_a                    1007c000       MSVCRT:cinitexe.obj
 0003:000000cc       ___xc_z                    1007c0cc       MSVCRT:cinitexe.obj
 0003:000000d0       ___xi_a                    1007c0d0       MSVCRT:cinitexe.obj
 0003:000000dc       ___xi_z                    1007c0dc       MSVCRT:cinitexe.obj
 0003:00000320       ?inflate_mask@@3PAIA       1007c320       infutil.obj
 0003:00000364       ??_R0?AVAnode@@@8          1007c364       _Display.obj
 0003:00000378       ??_R0?AVAbitmap@@@8        1007c378       _Display.obj
 0003:00000390       ??_R0?AVNativeBitmap@@@8   1007c390       _Display.obj
 0003:000003ac       ??_R0?AVSPlayer@@@8        1007c3ac       PlayerWnd.obj
 0003:000003c4       ??_R0?AVNativePlayerWnd@@@8 1007c3c4       PlayerWnd.obj
 0003:000003e4       ?screenDepth@@3HA          1007c3e4       bitbuf.obj
 0003:000003e8       ?screenInverted@@3HA       1007c3e8       bitbuf.obj
 0003:000003ec       ?m_insertMode@EditText@@2HA 1007c3ec       edittext.obj
 0003:000003f0       ?shiftTabs@@3PAPBEA        1007c3f0       raster.obj
 0003:000004a8       ?UnixFontData@@3PAEA       1007c4a8       unixfonts.obj
 0003:0003c964       ??_R0?AVAaviRead@@@8       100b8964       avi.obj
 0003:0003c97c       ??_R0?AVAchunk@@@8         100b897c       avi.obj
 0003:0003c994       ??_R0?AVAaviWrite@@@8      100b8994       avi.obj
 0003:0003c9cc       ??_R0?AVAfile@@@8          100b89cc       buffer.obj
 0003:0003c9e0       ??_R0?AVAbuffer@@@8        100b89e0       buffer.obj
 0003:0003c9f8       ??_R0?AVAobject@@@8        100b89f8       button.obj
 0003:0003ca10       ??_R0?AVAbutton@@@8        100b8a10       button.obj
 0003:0003ca28       ??_R0?AVAd3d@@@8           100b8a28       d3d.obj
 0003:0003ca3c       ??_R0?AVAsurface@@@8       100b8a3c       display.obj
 0003:0003ca54       ??_R0?AVAdisplay@@@8       100b8a54       display.obj
 0003:0003ca6c       ??_R0?AVAedit@@@8          100b8a6c       edit.obj
 0003:0003ca80       ??_R0?AVAfileDlg@@@8       100b8a80       filedlg.obj
 0003:0003ca98       ??_R0?AVAfilehd@@@8        100b8a98       filehd.obj
 0003:0003cab0       ??_R0?AVAfilemem@@@8       100b8ab0       filemem.obj
 0003:0003cac8       ??_R0?AVAflash@@@8         100b8ac8       flash.obj
 0003:0003caf4       ??_R0?AVAfont@@@8          100b8af4       font.obj
 0003:0003cb08       ??_R0?AVAthread@@@8        100b8b08       ftp.obj
 0003:0003cb20       ??_R0?AVAftpClient@@@8     100b8b20       ftp.obj
 0003:0003cb3c       ??_R0?AVAlib@@@8           100b8b3c       interface.obj
 0003:0003cb50       ?alib@@3VAlib@@A           100b8b50       interface.obj
 0003:0003cbac       ??_R0?AVAitem@@@8          100b8bac       item.obj
 0003:0003cbc0       ??_R0?AVAlist@@@8          100b8bc0       list.obj
 0003:0003cbd4       ??_R0?AVAmenu@@@8          100b8bd4       menu.obj
 0003:0003cbe8       ??_R0?AVAmovie@@@8         100b8be8       movie.obj
 0003:0003cc00       ??_R0?AVAmsgbox@@@8        100b8c00       msgbox.obj
 0003:0003cc18       ??_R0?AVACI@@@8            100b8c18       node.obj
 0003:0003cc30       ?CI@Anode@@2VACI@@A        100b8c30       node.obj
 0003:0003cc58       ?mouseEVENTS@@3PAPADA      100b8c58       object.obj
 0003:0003cc94       ??_R0?AVAoglBitmap@@@8     100b8c94       oglbitmap.obj
 0003:0003ccb0       ??_R0?AVApipe@@@8          100b8cb0       pipe.obj
 0003:0003ccc4       ??_R0?AVAplugz@@@8         100b8cc4       plugz.obj
 0003:0003ccdc       ??_R0?AVAregistry@@@8      100b8cdc       registry.obj
 0003:0003ccf4       ??_R0?AVAresobj@@@8        100b8cf4       resources.obj
 0003:0003cd0c       ??_R0?AVAresource@@@8      100b8d0c       resources.obj
 0003:0003cd24       ??_R0?AVAscrollBar@@@8     100b8d24       scrollbar.obj
 0003:0003cd40       ??_R0?AVAsection@@@8       100b8d40       section.obj
 0003:0003cd58       ??_R0?AVAsegment@@@8       100b8d58       segment.obj
 0003:0003cd70       ??_R0?AVAselButton@@@8     100b8d70       selButton.obj
 0003:0003cd8c       ??_R0?AVAserial@@@8        100b8d8c       serial.obj
 0003:0003cda4       ??_R0?AVAstatic@@@8        100b8da4       static.obj
 0003:0003cdbc       ??_R0?AVAtitleBar@@@8      100b8dbc       titleBar.obj
 0003:0003cdd4       ??_R0?AVAtool@@@8          100b8dd4       toolbar.obj
 0003:0003cde8       ??_R0?AVAtoolBar@@@8       100b8de8       toolbar.obj
 0003:0003ce00       ??_R0?AVAtooltips@@@8      100b8e00       tooltips.obj
 0003:0003ce18       ??_R0?AVAtreeView@@@8      100b8e18       treeView.obj
 0003:0003ce30       ?messageLoopRUN@@3_NA      100b8e30       window.obj
 0003:0003ce34       ??_R0?AUIUnknown@@@8       100b8e34       window.obj
 0003:0003ce4c       ??_R0?AUIDropTarget@@@8    100b8e4c       window.obj
 0003:0003ce68       ??_R0?AVAdroptarget@@@8    100b8e68       window.obj
 0003:0003ce84       ??_R0?AUIDropSource@@@8    100b8e84       window.obj
 0003:0003cea0       ??_R0?AVAdropsource@@@8    100b8ea0       window.obj
 0003:0003cebc       ??_R0?AVAidle@@@8          100b8ebc       window.obj
 0003:0003ced0       ??_R0?AUIDataObject@@@8    100b8ed0       window.obj
 0003:0003ceec       ??_R0?AVAdropString@@@8    100b8eec       window.obj
 0003:0003cf08       ??_R0?AVAwindow@@@8        100b8f08       window.obj
 0003:0003cf40       _png_libpng_ver            100b8f40       libpng:png.obj
 0003:0003cf4c       _png_sig                   100b8f4c       libpng:png.obj
 0003:0003cf54       _png_IHDR                  100b8f54       libpng:png.obj
 0003:0003cf5c       _png_IDAT                  100b8f5c       libpng:png.obj
 0003:0003cf64       _png_IEND                  100b8f64       libpng:png.obj
 0003:0003cf6c       _png_PLTE                  100b8f6c       libpng:png.obj
 0003:0003cf74       _png_bKGD                  100b8f74       libpng:png.obj
 0003:0003cf7c       _png_cHRM                  100b8f7c       libpng:png.obj
 0003:0003cf84       _png_gAMA                  100b8f84       libpng:png.obj
 0003:0003cf8c       _png_hIST                  100b8f8c       libpng:png.obj
 0003:0003cf94       _png_oFFs                  100b8f94       libpng:png.obj
 0003:0003cf9c       _png_pCAL                  100b8f9c       libpng:png.obj
 0003:0003cfa4       _png_pHYs                  100b8fa4       libpng:png.obj
 0003:0003cfac       _png_sBIT                  100b8fac       libpng:png.obj
 0003:0003cfb4       _png_sRGB                  100b8fb4       libpng:png.obj
 0003:0003cfbc       _png_tEXt                  100b8fbc       libpng:png.obj
 0003:0003cfc4       _png_tIME                  100b8fc4       libpng:png.obj
 0003:0003cfcc       _png_tRNS                  100b8fcc       libpng:png.obj
 0003:0003cfd4       _png_zTXt                  100b8fd4       libpng:png.obj
 0003:0003cfdc       _png_pass_start            100b8fdc       libpng:png.obj
 0003:0003cff8       _png_pass_inc              100b8ff8       libpng:png.obj
 0003:0003d014       _png_pass_ystart           100b9014       libpng:png.obj
 0003:0003d030       _png_pass_yinc             100b9030       libpng:png.obj
 0003:0003d04c       _png_pass_mask             100b904c       libpng:png.obj
 0003:0003d068       _png_pass_dsp_mask         100b9068       libpng:png.obj
 0003:0003d3a0       ___security_cookie_complement 100b93a0       MSVCRT:seccook.obj
 0003:0003d3a4       ___security_cookie         100b93a4       MSVCRT:seccook.obj
 0003:0003d3b0       ??_R0?AVtype_info@@@8      100b93b0       MSVCRT:ti_inst.obj
 0003:0003e488       ?CI@NativeBitmap@@2VACI@@A 100ba488       _Display.obj
 0003:0003e4b0       ?screenColorInfo@NativePalette@@0PAUSColorInfo@@A 100ba4b0       palette.obj
 0003:0003e4b8       ?szTitle@@3PADA            100ba4b8       PlayerWnd.obj
 0003:0003e51c       ?hInst@@3PAUHINSTANCE__@@A 100ba51c       PlayerWnd.obj
 0003:0003e520       ?szWindowClass@@3PADA      100ba520       PlayerWnd.obj
 0003:0003e584       ?firstColorInfo@@3PAUSColorInfo@@A 100ba584       bitbuf.obj
 0003:0003e588       ?screenFormat@@3HA         100ba588       bitbuf.obj
 0003:0003e798       ?PixCoverage@@3PAY07UCoverEntry@@A 100ba798       raster.obj
 0003:0003eb98       ?renderTablesBuilt@@3HA    100bab98       raster.obj
 0003:0003ebd8       ?gRandomFast@@3UTRandomFast@@A 100babd8       splayer.obj
 0003:0003ebe8       ?fmttag@@3PAUACMfmtTag@@A  100babe8       avi.obj
 0003:000437e8       ?driver@@3PAUACMdriver@@A  100bf7e8       avi.obj
 0003:00051ef8       ?CI@AaviRead@@2VACI@@A     100cdef8       avi.obj
 0003:00051f20       ?CI@AaviWrite@@2VACI@@A    100cdf20       avi.obj
 0003:00052b50       ?CI@Abitmap@@2VACI@@A      100ceb50       bitmap.obj
 0003:00052b78       ?CI@Abuffer@@2VACI@@A      100ceb78       buffer.obj
 0003:00052ba0       ?CI@Abutton@@2VACI@@A      100ceba0       button.obj
 0003:00052bc8       ?CI@Ad3d@@2VACI@@A         100cebc8       d3d.obj
 0003:00052bf0       ?CI@Adisplay@@2VACI@@A     100cebf0       display.obj
 0003:00052c18       ?CI@Aedit@@2VACI@@A        100cec18       edit.obj
 0003:00052c40       ?CI@Afile@@2VACI@@A        100cec40       file.obj
 0003:00052c68       ?CI@AfileDlg@@2VACI@@A     100cec68       filedlg.obj
 0003:00052c90       ?CI@Afilehd@@2VACI@@A      100cec90       filehd.obj
 0003:00052cb8       ?CI@Afilemem@@2VACI@@A     100cecb8       filemem.obj
 0003:00052ce0       ?CI@Aflash@@2VACI@@A       100cece0       flash.obj
 0003:00052d08       ?CI@Afont@@2VACI@@A        100ced08       font.obj
 0003:00052d30       ?CI@AftpClient@@2VACI@@A   100ced30       ftp.obj
 0003:00052d58       ?mainThreadID@@3IA         100ced58       interface.obj
 0003:00052d5c       ?resource@@3VAresource@@A  100ced5c       interface.obj
 0003:00052d80       ?alibInstance@@3PAUHINSTANCE__@@A 100ced80       interface.obj
 0003:00052d84       ?alibres@@3VAresource@@A   100ced84       interface.obj
 0003:00052da8       ?CI@Aitem@@2VACI@@A        100ceda8       item.obj
 0003:00052dd0       ?CI@Alist@@2VACI@@A        100cedd0       list.obj
 0003:00052df8       ?CI@Amenu@@2VACI@@A        100cedf8       menu.obj
 0003:00052e28       ?CI@Amovie@@2VACI@@A       100cee28       movie.obj
 0003:00052e50       ?CI@Amsgbox@@2VACI@@A      100cee50       msgbox.obj
 0003:00052e78       ?Alasterror@@3PADA         100cee78       node.obj
 0003:00052e7c       ?aciList@@3PAVACI@@A       100cee7c       node.obj
 0003:00052e80       ?CI@Aobject@@2VACI@@A      100cee80       object.obj
 0003:00052ea8       ?CI@AoglBitmap@@2VACI@@A   100ceea8       oglbitmap.obj
 0003:00052ed0       ?CI@Apipe@@2VACI@@A        100ceed0       pipe.obj
 0003:00052ef8       ?CI@Aplugz@@2VACI@@A       100ceef8       plugz.obj
 0003:00052f20       ?CI@Aregistry@@2VACI@@A    100cef20       registry.obj
 0003:00052f48       ?CI@Aresource@@2VACI@@A    100cef48       resources.obj
 0003:00052f70       ?CI@Aresobj@@2VACI@@A      100cef70       resources.obj
 0003:00052f98       ?CI@AscrollBar@@2VACI@@A   100cef98       scrollbar.obj
 0003:00052fc0       ?CI@Asegment@@2VACI@@A     100cefc0       segment.obj
 0003:00052fe8       ?CI@AselButton@@2VACI@@A   100cefe8       selButton.obj
 0003:00053010       ?CI@Aserial@@2VACI@@A      100cf010       serial.obj
 0003:00053038       ?CI@Astatic@@2VACI@@A      100cf038       static.obj
 0003:00053060       ?CI@Asurface@@2VACI@@A     100cf060       surface.obj
 0003:00053088       ?CI@AtitleBar@@2VACI@@A    100cf088       titleBar.obj
 0003:000530b0       ?CI@Atool@@2VACI@@A        100cf0b0       toolbar.obj
 0003:000530d8       ?CI@AtoolBar@@2VACI@@A     100cf0d8       toolbar.obj
 0003:00053100       ?CI@Atooltips@@2VACI@@A    100cf100       tooltips.obj
 0003:00053128       ?CI@AtreeView@@2VACI@@A    100cf128       treeView.obj
 0003:00053350       ?m_pSetLayeredWindowAttributes@@3P6GHPAUHWND__@@KEK@ZA 100cf350       window.obj
 0003:00053358       ?m_pUpdateLayeredWindow@@3P6GHPAUHWND__@@PAUHDC__@@PAUtagPOINT@@PAUtagSIZE@@12KPAU_BLENDFUNCTION@@K@ZA 100cf358       window.obj
 0003:0005335c       ?list@Awindowlist@@2PAV1@A 100cf35c       window.obj
 0003:0005339c       ?section@Awindowlist@@2VAsection@@A 100cf39c       window.obj
 0003:000533b8       ?safeGUI@@3VAsection@@A    100cf3b8       window.obj
 0003:000533f0       ?CI@Awindow@@2VACI@@A      100cf3f0       window.obj
 0003:00053420       ?__type_info_root_node@@3U__type_info_node@@A 100cf420       MSVCRT:tncleanup.obj
 0003:00053428       __adjust_fdiv              100cf428       <common>
 0003:0005342c       ___native_startup_state    100cf42c       <common>
 0003:00053430       ___sse2_available          100cf430       <common>
 0003:00053434       __pRawDllMain              100cf434       <common>
 0003:00053438       ___dyn_tls_init_callback   100cf438       <common>
 0003:0005343c       ___onexitend               100cf43c       <common>
 0003:00053440       ___onexitbegin             100cf440       <common>

 entry point at        0001:000659de

 Static symbols

 0001:00001df0       ?falloc@@YAPAXPAXII@Z      10002df0 f     inftrees.obj
 0001:00001e60       ?huft_build@@YAHPAIII00PAPAUinflate_huft_s@@0PAUz_stream_s@@@Z 10002e60 f     inftrees.obj
 0001:00002950       ?select_file_type@@YAPAUcjpeg_source_struct@@PAUjpeg_compress_struct@@PAU_iobuf@@@Z 10003950 f     cjpeg.obj
 0001:000029d0       ?usage@@YAXXZ              100039d0 f     cjpeg.obj
 0001:00002b30       ?parse_switches@@YAHPAUjpeg_compress_struct@@HPAPADHE@Z 10003b30 f     cjpeg.obj
 0001:00003860       ?start_iMCU_row@@YAXPAUjpeg_compress_struct@@@Z 10004860 f     jccoefct.obj
 0001:000038b0       ?compress_data@@YAEPAUjpeg_compress_struct@@PAPAPAE@Z 100048b0 f     jccoefct.obj
 0001:00003b50       ?compress_output@@YAEPAUjpeg_compress_struct@@PAPAPAE@Z 10004b50 f     jccoefct.obj
 0001:00003d50       ?compress_first_pass@@YAEPAUjpeg_compress_struct@@PAPAPAE@Z 10004d50 f     jccoefct.obj
 0001:00003f70       ?start_pass_coef@@YAXPAUjpeg_compress_struct@@W4J_BUF_MODE@@@Z 10004f70 f     jccoefct.obj
 0001:00004170       ?rgb_ycc_start@@YAXPAUjpeg_compress_struct@@@Z 10005170 f     jccolor.obj
 0001:00004250       ?rgb_ycc_convert@@YAXPAUjpeg_compress_struct@@PAPAEPAPAPAEIH@Z 10005250 f     jccolor.obj
 0001:00004370       ?rgb_gray_convert@@YAXPAUjpeg_compress_struct@@PAPAEPAPAPAEIH@Z 10005370 f     jccolor.obj
 0001:00004420       ?cmyk_ycck_convert@@YAXPAUjpeg_compress_struct@@PAPAEPAPAPAEIH@Z 10005420 f     jccolor.obj
 0001:00004570       ?grayscale_convert@@YAXPAUjpeg_compress_struct@@PAPAEPAPAPAEIH@Z 10005570 f     jccolor.obj
 0001:000045d0       ?null_convert@@YAXPAUjpeg_compress_struct@@PAPAEPAPAPAEIH@Z 100055d0 f     jccolor.obj
 0001:00004650       ?null_method@@YAXPAUjpeg_compress_struct@@@Z 10005650 f     jccolor.obj
 0001:00004890       ?start_pass_fdctmgr@@YAXPAUjpeg_compress_struct@@@Z 10005890 f     jcdctmgr.obj
 0001:00004ac0       ?forward_DCT_float@@YAXPAUjpeg_compress_struct@@PAUjpeg_component_info@@PAPAEPAY0EA@FIII@Z 10005ac0 f     jcdctmgr.obj
 0001:00005370       ?dump_buffer@@YAEPAUworking_state@@@Z 10006370 f     jchuff.obj
 0001:000053a0       ?emit_bits@@YAEPAUworking_state@@IH@Z 100063a0 f     jchuff.obj
 0001:00005480       ?flush_bits@@YAEPAUworking_state@@@Z 10006480 f     jchuff.obj
 0001:000054b0       ?encode_one_block@@YAEPAUworking_state@@PAFHPAUc_derived_tbl@@2@Z 100064b0 f     jchuff.obj
 0001:00005600       ?emit_restart@@YAEPAUworking_state@@H@Z 10006600 f     jchuff.obj
 0001:000056c0       ?encode_mcu_huff@@YAEPAUjpeg_compress_struct@@PAPAY0EA@F@Z 100066c0 f     jchuff.obj
 0001:00005830       ?finish_pass_huff@@YAXPAUjpeg_compress_struct@@@Z 10006830 f     jchuff.obj
 0001:00005900       ?htest_one_block@@YAXPAFHQAJ1@Z 10006900 f     jchuff.obj
 0001:000059b0       ?encode_mcu_gather@@YAEPAUjpeg_compress_struct@@PAPAY0EA@F@Z 100069b0 f     jchuff.obj
 0001:00005d60       ?finish_pass_gather@@YAXPAUjpeg_compress_struct@@@Z 10006d60 f     jchuff.obj
 0001:00005e50       ?start_pass_huff@@YAXPAUjpeg_compress_struct@@E@Z 10006e50 f     jchuff.obj
 0001:00006110       ?process_data_simple_main@@YAXPAUjpeg_compress_struct@@PAPAEPAII@Z 10007110 f     jcmainct.obj
 0001:000061c0       ?start_pass_main@@YAXPAUjpeg_compress_struct@@W4J_BUF_MODE@@@Z 100071c0 f     jcmainct.obj
 0001:000062a0       ?emit_byte@@YAXPAUjpeg_compress_struct@@H@Z 100072a0 f     jcmarker.obj
 0001:000062e0       ?emit_marker@@YAXPAUjpeg_compress_struct@@W4JPEG_MARKER@@@Z 100072e0 f     jcmarker.obj
 0001:00006350       ?emit_2bytes@@YAXPAUjpeg_compress_struct@@H@Z 10007350 f     jcmarker.obj
 0001:000063c0       ?emit_dqt@@YAHPAUjpeg_compress_struct@@H@Z 100073c0 f     jcmarker.obj
 0001:00006530       ?emit_dht@@YAXPAUjpeg_compress_struct@@HE@Z 10007530 f     jcmarker.obj
 0001:00006690       ?emit_dac@@YAXPAUjpeg_compress_struct@@@Z 10007690 f     jcmarker.obj
 0001:000066a0       ?emit_dri@@YAXPAUjpeg_compress_struct@@@Z 100076a0 f     jcmarker.obj
 0001:000066d0       ?emit_sof@@YAXPAUjpeg_compress_struct@@W4JPEG_MARKER@@@Z 100076d0 f     jcmarker.obj
 0001:00006850       ?emit_sos@@YAXPAUjpeg_compress_struct@@@Z 10007850 f     jcmarker.obj
 0001:00006a20       ?emit_jfif_app0@@YAXPAUjpeg_compress_struct@@@Z 10007a20 f     jcmarker.obj
 0001:00006c20       ?emit_adobe_app14@@YAXPAUjpeg_compress_struct@@@Z 10007c20 f     jcmarker.obj
 0001:00006d90       ?write_any_marker@@YAXPAUjpeg_compress_struct@@HPBEI@Z 10007d90 f     jcmarker.obj
 0001:00006e00       ?write_file_header@@YAXPAUjpeg_compress_struct@@@Z 10007e00 f     jcmarker.obj
 0001:00006e40       ?write_frame_header@@YAXPAUjpeg_compress_struct@@@Z 10007e40 f     jcmarker.obj
 0001:00006f40       ?write_scan_header@@YAXPAUjpeg_compress_struct@@@Z 10007f40 f     jcmarker.obj
 0001:00007010       ?write_file_trailer@@YAXPAUjpeg_compress_struct@@@Z 10008010 f     jcmarker.obj
 0001:00007030       ?write_tables_only@@YAXPAUjpeg_compress_struct@@@Z 10008030 f     jcmarker.obj
 0001:00007190       ?initial_setup@@YAXPAUjpeg_compress_struct@@@Z 10008190 f     jcmaster.obj
 0001:00007370       ?validate_script@@YAXPAUjpeg_compress_struct@@@Z 10008370 f     jcmaster.obj
 0001:00007770       ?select_scan_parameters@@YAXPAUjpeg_compress_struct@@@Z 10008770 f     jcmaster.obj
 0001:00007860       ?per_scan_setup@@YAXPAUjpeg_compress_struct@@@Z 10008860 f     jcmaster.obj
 0001:00007a30       ?prepare_for_pass@@YAXPAUjpeg_compress_struct@@@Z 10008a30 f     jcmaster.obj
 0001:00007be0       ?pass_startup@@YAXPAUjpeg_compress_struct@@@Z 10008be0 f     jcmaster.obj
 0001:00007c10       ?finish_pass_master@@YAXPAUjpeg_compress_struct@@@Z 10008c10 f     jcmaster.obj
 0001:00008070       ?add_huff_table@@YAXPAUjpeg_compress_struct@@PAPAUJHUFF_TBL@@PBE2@Z 10009070 f     jcparam.obj
 0001:000080c0       ?std_huff_tables@@YAXPAUjpeg_compress_struct@@@Z 100090c0 f     jcparam.obj
 0001:00008530       ?fill_a_scan@@YAPAUjpeg_scan_info@@PAU1@HHHHH@Z 10009530 f     jcparam.obj
 0001:00008560       ?fill_scans@@YAPAUjpeg_scan_info@@PAU1@HHHHH@Z 10009560 f     jcparam.obj
 0001:000085a0       ?fill_dc_scans@@YAPAUjpeg_scan_info@@PAU1@HHH@Z 100095a0 f     jcparam.obj
 0001:00008c00       ?dump_buffer@@YAXPAUphuff_entropy_encoder@@@Z 10009c00 f     jcphuff.obj
 0001:00008c40       ?emit_bits@@YAXPAUphuff_entropy_encoder@@IH@Z 10009c40 f     jcphuff.obj
 0001:00008d80       ?flush_bits@@YAXPAUphuff_entropy_encoder@@@Z 10009d80 f     jcphuff.obj
 0001:00008da0       ?emit_symbol@@YAXPAUphuff_entropy_encoder@@HH@Z 10009da0 f     jcphuff.obj
 0001:00008de0       ?emit_buffered_bits@@YAXPAUphuff_entropy_encoder@@PADI@Z 10009de0 f     jcphuff.obj
 0001:00008e10       ?emit_eobrun@@YAXPAUphuff_entropy_encoder@@@Z 10009e10 f     jcphuff.obj
 0001:00008e90       ?emit_restart@@YAXPAUphuff_entropy_encoder@@H@Z 10009e90 f     jcphuff.obj
 0001:00008f30       ?encode_mcu_DC_first@@YAEPAUjpeg_compress_struct@@PAPAY0EA@F@Z 10009f30 f     jcphuff.obj
 0001:00009090       ?encode_mcu_AC_first@@YAEPAUjpeg_compress_struct@@PAPAY0EA@F@Z 1000a090 f     jcphuff.obj
 0001:00009270       ?encode_mcu_DC_refine@@YAEPAUjpeg_compress_struct@@PAPAY0EA@F@Z 1000a270 f     jcphuff.obj
 0001:00009330       ?encode_mcu_AC_refine@@YAEPAUjpeg_compress_struct@@PAPAY0EA@F@Z 1000a330 f     jcphuff.obj
 0001:000095c0       ?finish_pass_phuff@@YAXPAUjpeg_compress_struct@@@Z 1000a5c0 f     jcphuff.obj
 0001:00009610       ?finish_pass_gather_phuff@@YAXPAUjpeg_compress_struct@@@Z 1000a610 f     jcphuff.obj
 0001:000096e0       ?start_pass_phuff@@YAXPAUjpeg_compress_struct@@E@Z 1000a6e0 f     jcphuff.obj
 0001:000098f0       ?start_pass_prep@@YAXPAUjpeg_compress_struct@@W4J_BUF_MODE@@@Z 1000a8f0 f     jcprepct.obj
 0001:00009930       ?expand_bottom_edge@@YAXPAPAEIHH@Z 1000a930 f     jcprepct.obj
 0001:00009960       ?pre_process_data@@YAXPAUjpeg_compress_struct@@PAPAEPAIIPAPAPAE2I@Z 1000a960 f     jcprepct.obj
 0001:00009c30       ?start_pass_downsample@@YAXPAUjpeg_compress_struct@@@Z 1000ac30 f     jcsample.obj
 0001:00009c40       ?expand_right_edge@@YAXPAPAEHII@Z 1000ac40 f     jcsample.obj
 0001:00009c90       ?sep_downsample@@YAXPAUjpeg_compress_struct@@PAPAPAEI1I@Z 1000ac90 f     jcsample.obj
 0001:00009d20       ?int_downsample@@YAXPAUjpeg_compress_struct@@PAUjpeg_component_info@@PAPAE2@Z 1000ad20 f     jcsample.obj
 0001:00009e50       ?fullsize_downsample@@YAXPAUjpeg_compress_struct@@PAUjpeg_component_info@@PAPAE2@Z 1000ae50 f     jcsample.obj
 0001:00009ea0       ?h2v1_downsample@@YAXPAUjpeg_compress_struct@@PAUjpeg_component_info@@PAPAE2@Z 1000aea0 f     jcsample.obj
 0001:00009f50       ?h2v2_downsample@@YAXPAUjpeg_compress_struct@@PAUjpeg_component_info@@PAPAE2@Z 1000af50 f     jcsample.obj
 0001:0000a240       ?default_decompress_parms@@YAXPAUjpeg_decompress_struct@@@Z 1000b240 f     jdapimin.obj
 0001:0000a6d0       ?output_pass_setup@@YAEPAUjpeg_decompress_struct@@@Z 1000b6d0 f     jdapistd.obj
 0001:0000aa80       ?init_destination@@YAXPAUjpeg_compress_struct@@@Z 1000ba80 f     jdatadst.obj
 0001:0000aab0       ?empty_output_buffer@@YAEPAUjpeg_compress_struct@@@Z 1000bab0 f     jdatadst.obj
 0001:0000ab00       ?term_destination@@YAXPAUjpeg_compress_struct@@@Z 1000bb00 f     jdatadst.obj
 0001:0000abc0       ?init_source@@YAXPAUjpeg_decompress_struct@@@Z 1000bbc0 f     jdatasrc.obj
 0001:0000abd0       ?fill_input_buffer@@YAEPAUjpeg_decompress_struct@@@Z 1000bbd0 f     jdatasrc.obj
 0001:0000ac50       ?skip_input_data@@YAXPAUjpeg_decompress_struct@@J@Z 1000bc50 f     jdatasrc.obj
 0001:0000ac90       ?term_source@@YAXPAUjpeg_decompress_struct@@@Z 1000bc90 f     jdatasrc.obj
 0001:0000ad10       ?start_iMCU_row@@YAXPAUjpeg_decompress_struct@@@Z 1000bd10 f     jdcoefct.obj
 0001:0000ad60       ?start_input_pass@@YAXPAUjpeg_decompress_struct@@@Z 1000bd60 f     jdcoefct.obj
 0001:0000adc0       ?start_output_pass@@YAXPAUjpeg_decompress_struct@@@Z 1000bdc0 f     jdcoefct.obj
 0001:0000add0       ?decompress_onepass@@YAHPAUjpeg_decompress_struct@@PAPAPAE@Z 1000bdd0 f     jdcoefct.obj
 0001:0000b050       ?dummy_consume_data@@YAHPAUjpeg_decompress_struct@@@Z 1000c050 f     jdcoefct.obj
 0001:0000b060       ?consume_data@@YAHPAUjpeg_decompress_struct@@@Z 1000c060 f     jdcoefct.obj
 0001:0000b290       ?decompress_data@@YAHPAUjpeg_decompress_struct@@PAPAPAE@Z 1000c290 f     jdcoefct.obj
 0001:0000b560       ?build_ycc_rgb_table@@YAXPAUjpeg_decompress_struct@@@Z 1000c560 f     jdcolor.obj
 0001:0000b630       ?ycc_rgb_convert@@YAXPAUjpeg_decompress_struct@@PAPAPAEIPAPAEH@Z 1000c630 f     jdcolor.obj
 0001:0000b750       ?null_convert@@YAXPAUjpeg_decompress_struct@@PAPAPAEIPAPAEH@Z 1000c750 f     jdcolor.obj
 0001:0000b7e0       ?grayscale_convert@@YAXPAUjpeg_decompress_struct@@PAPAPAEIPAPAEH@Z 1000c7e0 f     jdcolor.obj
 0001:0000b810       ?ycck_cmyk_convert@@YAXPAUjpeg_decompress_struct@@PAPAPAEIPAPAEH@Z 1000c810 f     jdcolor.obj
 0001:0000b970       ?start_pass_dcolor@@YAXPAUjpeg_decompress_struct@@@Z 1000c970 f     jdcolor.obj
 0001:0000bb00       ?start_pass@@YAXPAUjpeg_decompress_struct@@@Z 1000cb00 f     jddctmgr.obj
 0001:0000c1a0       ?process_restart@@YAEPAUjpeg_decompress_struct@@@Z 1000d1a0 f     jdhuff.obj
 0001:0000c220       ?decode_mcu@@YAEPAUjpeg_decompress_struct@@PAPAY0EA@F@Z 1000d220 f     jdhuff.obj
 0001:0000c660       ?start_pass_huff_decoder@@YAXPAUjpeg_decompress_struct@@@Z 1000d660 f     jdhuff.obj
 0001:0000c7f0       ?initial_setup@@YAXPAUjpeg_decompress_struct@@@Z 1000d7f0 f     jdinput.obj
 0001:0000c9f0       ?per_scan_setup@@YAXPAUjpeg_decompress_struct@@@Z 1000d9f0 f     jdinput.obj
 0001:0000cba0       ?latch_quant_tables@@YAXPAUjpeg_decompress_struct@@@Z 1000dba0 f     jdinput.obj
 0001:0000cc50       ?start_input_pass@@YAXPAUjpeg_decompress_struct@@@Z 1000dc50 f     jdinput.obj
 0001:0000cc90       ?consume_markers@@YAHPAUjpeg_decompress_struct@@@Z 1000dc90 f     jdinput.obj
 0001:0000cd50       ?reset_input_controller@@YAXPAUjpeg_decompress_struct@@@Z 1000dd50 f     jdinput.obj
 0001:0000cd90       ?finish_input_pass@@YAXPAUjpeg_decompress_struct@@@Z 1000dd90 f     jdinput.obj
 0001:0000ce00       ?alloc_funny_pointers@@YAXPAUjpeg_decompress_struct@@@Z 1000de00 f     jdmainct.obj
 0001:0000ceb0       ?make_funny_pointers@@YAXPAUjpeg_decompress_struct@@@Z 1000deb0 f     jdmainct.obj
 0001:0000d000       ?set_wraparound_pointers@@YAXPAUjpeg_decompress_struct@@@Z 1000e000 f     jdmainct.obj
 0001:0000d0e0       ?set_bottom_pointers@@YAXPAUjpeg_decompress_struct@@@Z 1000e0e0 f     jdmainct.obj
 0001:0000d180       ?process_data_simple_main@@YAXPAUjpeg_decompress_struct@@PAPAEPAII@Z 1000e180 f     jdmainct.obj
 0001:0000d1f0       ?process_data_context_main@@YAXPAUjpeg_decompress_struct@@PAPAEPAII@Z 1000e1f0 f     jdmainct.obj
 0001:0000d330       ?start_pass_main@@YAXPAUjpeg_decompress_struct@@W4J_BUF_MODE@@@Z 1000e330 f     jdmainct.obj
 0001:0000d480       ?get_soi@@YAEPAUjpeg_decompress_struct@@@Z 1000e480 f     jdmarker.obj
 0001:0000d520       ?get_sof@@YAEPAUjpeg_decompress_struct@@EE@Z 1000e520 f     jdmarker.obj
 0001:0000d850       ?get_sos@@YAEPAUjpeg_decompress_struct@@@Z 1000e850 f     jdmarker.obj
 0001:0000db70       ?get_app0@@YAEPAUjpeg_decompress_struct@@@Z 1000eb70 f     jdmarker.obj
 0001:0000de20       ?get_app14@@YAEPAUjpeg_decompress_struct@@@Z 1000ee20 f     jdmarker.obj
 0001:0000e000       ?get_dac@@YAEPAUjpeg_decompress_struct@@@Z 1000f000 f     jdmarker.obj
 0001:0000e180       ?get_dht@@YAEPAUjpeg_decompress_struct@@@Z 1000f180 f     jdmarker.obj
 0001:0000e4a0       ?get_dqt@@YAEPAUjpeg_decompress_struct@@@Z 1000f4a0 f     jdmarker.obj
 0001:0000e6e0       ?get_dri@@YAEPAUjpeg_decompress_struct@@@Z 1000f6e0 f     jdmarker.obj
 0001:0000e7e0       ?skip_variable@@YAEPAUjpeg_decompress_struct@@@Z 1000f7e0 f     jdmarker.obj
 0001:0000e890       ?next_marker@@YAEPAUjpeg_decompress_struct@@@Z 1000f890 f     jdmarker.obj
 0001:0000e9c0       ?first_marker@@YAEPAUjpeg_decompress_struct@@@Z 1000f9c0 f     jdmarker.obj
 0001:0000ea70       ?read_markers@@YAHPAUjpeg_decompress_struct@@@Z 1000fa70 f     jdmarker.obj
 0001:0000ee10       ?read_restart_marker@@YAEPAUjpeg_decompress_struct@@@Z 1000fe10 f     jdmarker.obj
 0001:0000efa0       ?reset_marker_reader@@YAXPAUjpeg_decompress_struct@@@Z 1000ffa0 f     jdmarker.obj
 0001:0000f090       ?use_merged_upsample@@YAEPAUjpeg_decompress_struct@@@Z 10010090 f     jdmaster.obj
 0001:0000f130       ?prepare_range_limit_table@@YAXPAUjpeg_decompress_struct@@@Z 10010130 f     jdmaster.obj
 0001:0000f1d0       ?master_selection@@YAXPAUjpeg_decompress_struct@@@Z 100101d0 f     jdmaster.obj
 0001:0000f3a0       ?prepare_for_output_pass@@YAXPAUjpeg_decompress_struct@@@Z 100103a0 f     jdmaster.obj
 0001:0000f4e0       ?finish_output_pass@@YAXPAUjpeg_decompress_struct@@@Z 100104e0 f     jdmaster.obj
 0001:0000f5d0       ?process_restart@@YAEPAUjpeg_decompress_struct@@@Z 100105d0 f     jdphuff.obj
 0001:0000f650       ?decode_mcu_DC_first@@YAEPAUjpeg_decompress_struct@@PAPAY0EA@F@Z 10010650 f     jdphuff.obj
 0001:0000f8a0       ?decode_mcu_AC_first@@YAEPAUjpeg_decompress_struct@@PAPAY0EA@F@Z 100108a0 f     jdphuff.obj
 0001:0000fb00       ?decode_mcu_DC_refine@@YAEPAUjpeg_decompress_struct@@PAPAY0EA@F@Z 10010b00 f     jdphuff.obj
 0001:0000fc00       ?decode_mcu_AC_refine@@YAEPAUjpeg_decompress_struct@@PAPAY0EA@F@Z 10010c00 f     jdphuff.obj
 0001:00010020       ?start_pass_phuff_decoder@@YAXPAUjpeg_decompress_struct@@@Z 10011020 f     jdphuff.obj
 0001:00010380       ?post_process_1pass@@YAXPAUjpeg_decompress_struct@@PAPAPAEPAIIPAPAE2I@Z 10011380 f     jdpostct.obj
 0001:00010400       ?start_pass_dpost@@YAXPAUjpeg_decompress_struct@@W4J_BUF_MODE@@@Z 10011400 f     jdpostct.obj
 0001:00010500       ?start_pass_upsample@@YAXPAUjpeg_decompress_struct@@@Z 10011500 f     jdsample.obj
 0001:00010520       ?sep_upsample@@YAXPAUjpeg_decompress_struct@@PAPAPAEPAIIPAPAE2I@Z 10011520 f     jdsample.obj
 0001:000105f0       ?fullsize_upsample@@YAXPAUjpeg_decompress_struct@@PAUjpeg_component_info@@PAPAEPAPAPAE@Z 100115f0 f     jdsample.obj
 0001:00010600       ?noop_upsample@@YAXPAUjpeg_decompress_struct@@PAUjpeg_component_info@@PAPAEPAPAPAE@Z 10011600 f     jdsample.obj
 0001:00010610       ?int_upsample@@YAXPAUjpeg_decompress_struct@@PAUjpeg_component_info@@PAPAEPAPAPAE@Z 10011610 f     jdsample.obj
 0001:000106f0       ?h2v1_upsample@@YAXPAUjpeg_decompress_struct@@PAUjpeg_component_info@@PAPAEPAPAPAE@Z 100116f0 f     jdsample.obj
 0001:00010750       ?h2v2_upsample@@YAXPAUjpeg_decompress_struct@@PAUjpeg_component_info@@PAPAEPAPAPAE@Z 10011750 f     jdsample.obj
 0001:000107c0       ?h2v1_fancy_upsample@@YAXPAUjpeg_decompress_struct@@PAUjpeg_component_info@@PAPAEPAPAPAE@Z 100117c0 f     jdsample.obj
 0001:00010890       ?h2v2_fancy_upsample@@YAXPAUjpeg_decompress_struct@@PAUjpeg_component_info@@PAPAEPAPAPAE@Z 10011890 f     jdsample.obj
 0001:00010bc0       ?error_exit@@YAXPAUjpeg_common_struct@@@Z 10011bc0 f     jerror.obj
 0001:00010be0       ?output_message@@YAXPAUjpeg_common_struct@@@Z 10011be0 f     jerror.obj
 0001:00010c40       ?emit_message@@YAXPAUjpeg_common_struct@@H@Z 10011c40 f     jerror.obj
 0001:00010c80       ?format_message@@YAXPAUjpeg_common_struct@@PAD@Z 10011c80 f     jerror.obj
 0001:00010d30       ?reset_error_mgr@@YAXPAUjpeg_common_struct@@@Z 10011d30 f     jerror.obj
 0001:00011720       ?out_of_memory@@YAXPAUjpeg_common_struct@@H@Z 10012720 f     jmemmgr.obj
 0001:00011740       ?alloc_small@@YAPAXPAUjpeg_common_struct@@HI@Z 10012740 f     jmemmgr.obj
 0001:00011890       ?alloc_large@@YAPAXPAUjpeg_common_struct@@HI@Z 10012890 f     jmemmgr.obj
 0001:00011950       ?alloc_sarray@@YAPAPAEPAUjpeg_common_struct@@HII@Z 10012950 f     jmemmgr.obj
 0001:00011a00       ?alloc_barray@@YAPAPAY0EA@FPAUjpeg_common_struct@@HII@Z 10012a00 f     jmemmgr.obj
 0001:00011ab0       ?request_virt_sarray@@YAPAUjvirt_sarray_control@@PAUjpeg_common_struct@@HEIII@Z 10012ab0 f     jmemmgr.obj
 0001:00011b20       ?request_virt_barray@@YAPAUjvirt_barray_control@@PAUjpeg_common_struct@@HEIII@Z 10012b20 f     jmemmgr.obj
 0001:00011b90       ?realize_virt_arrays@@YAXPAUjpeg_common_struct@@@Z 10012b90 f     jmemmgr.obj
 0001:00011d30       ?do_sarray_io@@YAXPAUjpeg_common_struct@@PAUjvirt_sarray_control@@E@Z 10012d30 f     jmemmgr.obj
 0001:00011dd0       ?do_barray_io@@YAXPAUjpeg_common_struct@@PAUjvirt_barray_control@@E@Z 10012dd0 f     jmemmgr.obj
 0001:00011e70       ?access_virt_sarray@@YAPAPAEPAUjpeg_common_struct@@PAUjvirt_sarray_control@@IIE@Z 10012e70 f     jmemmgr.obj
 0001:00011fb0       ?access_virt_barray@@YAPAPAY0EA@FPAUjpeg_common_struct@@PAUjvirt_barray_control@@IIE@Z 10012fb0 f     jmemmgr.obj
 0001:00012100       ?free_pool@@YAXPAUjpeg_common_struct@@H@Z 10013100 f     jmemmgr.obj
 0001:00012210       ?self_destruct@@YAXPAUjpeg_common_struct@@@Z 10013210 f     jmemmgr.obj
 0001:00012460       ?text_getc@@YAHPAU_iobuf@@@Z 10013460 f     rdswitch.obj
 0001:00012490       ?read_text_integer@@YAEPAU_iobuf@@PAJPAH@Z 10013490 f     rdswitch.obj
 0001:000126c0       ?read_scan_integer@@YAEPAU_iobuf@@PAJPAH@Z 100136c0 f     rdswitch.obj
 0001:0001f6b0       ?DrawSubSlab@@YAXKPAKJJJJ@Z 100206b0 f     raster.obj
 0001:00027070       ?play_init_source@@YAXPAUjpeg_decompress_struct@@@Z 10028070 f     splay.obj
 0001:00027080       ?play_fill_input_buffer@@YAEPAUjpeg_decompress_struct@@@Z 10028080 f     splay.obj
 0001:000270e0       ?play_skip_input_data@@YAXPAUjpeg_decompress_struct@@J@Z 100280e0 f     splay.obj
 0001:00027180       ?play_term_source@@YAXPAUjpeg_decompress_struct@@@Z 10028180 f     splay.obj
 0001:0002abc0       ?NextDigit@@YAHPAN@Z       1002bbc0 f     splayer.obj
 0001:0002abe0       ?RoundInt@@YAHN@Z          1002bbe0 f     splayer.obj
 0001:00032d10       ?Conv4cc@@YAXPADI@Z        10033d10 f     avi.obj
 0001:00032d30       ?init@@YAXXZ               10033d30 f     avi.obj
 0001:00032d40       ?close@@YAXXZ              10033d40 f     avi.obj
 0001:000362c0       ?calcmulmmx@@YAXXZ         100372c0 f     bitmap.obj
 0001:00036310       ?calculmc@@YAXXZ           10037310 f     bitmap.obj
 0001:00036520       ?init@@YAXXZ               10037520 f     bitmap.obj
 0001:000422a0       ?jpeg_play_init_source@@YAXPAUjpeg_decompress_struct@@@Z 100432a0 f     bitmap.obj
 0001:000422b0       ?jpeg_play_fill_input_buffer@@YAEPAUjpeg_decompress_struct@@@Z 100432b0 f     bitmap.obj
 0001:000422f0       ?jpeg_play_skip_input_data@@YAXPAUjpeg_decompress_struct@@J@Z 100432f0 f     bitmap.obj
 0001:00042350       ?jpeg_play_term_source@@YAXPAUjpeg_decompress_struct@@@Z 10043350 f     bitmap.obj
 0001:000425d0       ?jpeg_write_init_destination@@YAXPAUjpeg_compress_struct@@@Z 100435d0 f     bitmap.obj
 0001:000425e0       ?jpeg_write_empty_outputbuffer@@YAEPAUjpeg_compress_struct@@@Z 100435e0 f     bitmap.obj
 0001:00042610       ?jpeg_write_term_destination@@YAXPAUjpeg_compress_struct@@@Z 10043610 f     bitmap.obj
 0001:00049250       ?ftpRcv@@YAHIPAD@Z         1004a250 f     ftp.obj
 0001:000493a0       ?pasvSocket@@YAIPAD@Z      1004a3a0 f     ftp.obj
 0001:0004c760       ?Conv4cc@@YAXPADI@Z        1004d760 f     movie.obj
 0001:0004c8d0       ?a2bstr@@YAXPA_WPAD@Z      1004d8d0 f     movie.obj
 0001:0004c8f0       ?FreeMediaTypePtr@@YGXPAU_AMMediaType@@@Z 1004d8f0 f     movie.obj
 0001:0004e555       __catch$?open@Amovie@@QAE_NPAD@Z$0 1004f555 f     movie.obj
 0001:00053400       ?ThreadProc@@YGKPAX@Z      10054400 f     thread.obj
 0001:00056110       ?idleFunction@@YAXXZ       10057110 f     window.obj
 0001:00060c90       _png_default_read_data     10061c90 f     libpng:pngrio.obj
 0001:00060ed0       _png_format_buffer         10061ed0 f     libpng:pngerror.obj
 0001:00060f70       _png_default_error         10061f70 f     libpng:pngerror.obj
 0001:00060fa0       _png_default_warning       10061fa0 f     libpng:pngerror.obj
 0001:000656a0       ?ArrayUnwindFilter@@YAHPAU_EXCEPTION_POINTERS@@@Z 100666a0 f     MSVCRT:ehvecdtr.obj
 0001:000658ba       _pre_c_init                100668ba f     MSVCRT:crtdll.obj
 0001:00065b5c       _has_osfxsr_set            10066b5c f     MSVCRT:cpu_disp.obj
 0001:00065dd0       __unwindfunclet$??0NativePlayerWnd@@QAE@PAVAflash@@@Z$0 10066dd0 f     PlayerWnd.obj
 0001:00065dd8       __ehhandler$??0NativePlayerWnd@@QAE@PAVAflash@@@Z 10066dd8 f     PlayerWnd.obj
 0001:00065df0       __unwindfunclet$??1NativePlayerWnd@@UAE@XZ$0 10066df0 f     PlayerWnd.obj
 0001:00065df8       __ehhandler$??1NativePlayerWnd@@UAE@XZ 10066df8 f     PlayerWnd.obj
 0001:00065e10       __unwindfunclet$?CreateScreenBits@CBitBuffer@@QAEHPAVNativePlayerWnd@@PAUSRECT@@@Z$0 10066e10 f     bitbuf.obj
 0001:00065e1b       __unwindfunclet$?CreateScreenBits@CBitBuffer@@QAEHPAVNativePlayerWnd@@PAUSRECT@@@Z$1 10066e1b f     bitbuf.obj
 0001:00065e29       __ehhandler$?CreateScreenBits@CBitBuffer@@QAEHPAVNativePlayerWnd@@PAUSRECT@@@Z 10066e29 f     bitbuf.obj
 0001:00065e40       __unwindfunclet$?Draw@EditText@@QAEHPAUSTransform@@H@Z$2 10066e40 f     edittext.obj
 0001:00065e4e       __unwindfunclet$?Draw@EditText@@QAEHPAUSTransform@@H@Z$3 10066e4e f     edittext.obj
 0001:00065e59       __ehhandler$?Draw@EditText@@QAEHPAUSTransform@@H@Z 10066e59 f     edittext.obj
 0001:00065e70       __unwindfunclet$??0CRaster@@QAE@XZ$0 10066e70 f     raster.obj
 0001:00065e7e       __unwindfunclet$??0CRaster@@QAE@XZ$1 10066e7e f     raster.obj
 0001:00065e8c       __unwindfunclet$??0CRaster@@QAE@XZ$2 10066e8c f     raster.obj
 0001:00065e9a       __ehhandler$??0CRaster@@QAE@XZ 10066e9a f     raster.obj
 0001:00065eb0       __unwindfunclet$??1CRaster@@QAE@XZ$0 10066eb0 f     raster.obj
 0001:00065ebe       __unwindfunclet$??1CRaster@@QAE@XZ$1 10066ebe f     raster.obj
 0001:00065ecc       __unwindfunclet$??1CRaster@@QAE@XZ$2 10066ecc f     raster.obj
 0001:00065eda       __unwindfunclet$??1CRaster@@QAE@XZ$3 10066eda f     raster.obj
 0001:00065ee8       __ehhandler$??1CRaster@@QAE@XZ 10066ee8 f     raster.obj
 0001:00065f00       __unwindfunclet$??0DisplayList@@QAE@XZ$0 10066f00 f     sdisplay.obj
 0001:00065f0e       __unwindfunclet$??0DisplayList@@QAE@XZ$1 10066f0e f     sdisplay.obj
 0001:00065f1c       __unwindfunclet$??0DisplayList@@QAE@XZ$2 10066f1c f     sdisplay.obj
 0001:00065f2a       __unwindfunclet$??0DisplayList@@QAE@XZ$3 10066f2a f     sdisplay.obj
 0001:00065f38       __unwindfunclet$??0DisplayList@@QAE@XZ$4 10066f38 f     sdisplay.obj
 0001:00065f46       __ehhandler$??0DisplayList@@QAE@XZ 10066f46 f     sdisplay.obj
 0001:00065f50       __unwindfunclet$??1DisplayList@@QAE@XZ$0 10066f50 f     sdisplay.obj
 0001:00065f5e       __unwindfunclet$??1DisplayList@@QAE@XZ$1 10066f5e f     sdisplay.obj
 0001:00065f6c       __unwindfunclet$??1DisplayList@@QAE@XZ$2 10066f6c f     sdisplay.obj
 0001:00065f7a       __unwindfunclet$??1DisplayList@@QAE@XZ$3 10066f7a f     sdisplay.obj
 0001:00065f88       __unwindfunclet$??1DisplayList@@QAE@XZ$4 10066f88 f     sdisplay.obj
 0001:00065f96       __ehhandler$??1DisplayList@@QAE@XZ 10066f96 f     sdisplay.obj
 0001:00065fa0       __unwindfunclet$?PlaceObject@DisplayList@@QAEPAUSObject@@PAU2@PAUPlaceInfo@@@Z$0 10066fa0 f     sdisplay.obj
 0001:00065fa8       __unwindfunclet$?PlaceObject@DisplayList@@QAEPAUSObject@@PAU2@PAUPlaceInfo@@@Z$1 10066fa8 f     sdisplay.obj
 0001:00065fb3       __unwindfunclet$?PlaceObject@DisplayList@@QAEPAUSObject@@PAU2@PAUPlaceInfo@@@Z$2 10066fb3 f     sdisplay.obj
 0001:00065fbe       __unwindfunclet$?PlaceObject@DisplayList@@QAEPAUSObject@@PAU2@PAUPlaceInfo@@@Z$3 10066fbe f     sdisplay.obj
 0001:00065fc9       __ehhandler$?PlaceObject@DisplayList@@QAEPAUSObject@@PAU2@PAUPlaceInfo@@@Z 10066fc9 f     sdisplay.obj
 0001:00065fe0       __unwindfunclet$?BuildMorphEdges@SCharacterParser@@QAEXPAUSRECT@@@Z$0 10066fe0 f     sobject.obj
 0001:00065feb       __ehhandler$?BuildMorphEdges@SCharacterParser@@QAEXPAUSRECT@@@Z 10066feb f     sobject.obj
 0001:00066000       __unwindfunclet$?BuildEdges@SObject@@QAEXPAUSTransform@@@Z$0 10067000 f     sobject.obj
 0001:0006600b       __unwindfunclet$?BuildEdges@SObject@@QAEXPAUSTransform@@@Z$1 1006700b f     sobject.obj
 0001:00066016       __unwindfunclet$?BuildEdges@SObject@@QAEXPAUSTransform@@@Z$2 10067016 f     sobject.obj
 0001:00066021       __ehhandler$?BuildEdges@SObject@@QAEXPAUSTransform@@@Z 10067021 f     sobject.obj
 0001:00066030       __unwindfunclet$?HitButton@SObject@@QAEXAAPAU1@USTransform@@PAUSPOINT@@@Z$0 10067030 f     sobject.obj
 0001:0006603e       __ehhandler$?HitButton@SObject@@QAEXAAPAU1@USTransform@@PAUSPOINT@@@Z 1006703e f     sobject.obj
 0001:00066050       __unwindfunclet$??0ScriptPlayer@@QAE@XZ$0 10067050 f     splay.obj
 0001:00066058       __unwindfunclet$??0ScriptPlayer@@QAE@XZ$1 10067058 f     splay.obj
 0001:00066066       __ehhandler$??0ScriptPlayer@@QAE@XZ 10067066 f     splay.obj
 0001:00066070       __unwindfunclet$??1ScriptPlayer@@QAE@XZ$0 10067070 f     splay.obj
 0001:00066078       __unwindfunclet$??1ScriptPlayer@@QAE@XZ$1 10067078 f     splay.obj
 0001:00066086       __ehhandler$??1ScriptPlayer@@QAE@XZ 10067086 f     splay.obj
 0001:00066090       __unwindfunclet$?OpenVariableLoader@SPlayer@@QAEPAVScriptPlayer@@HPBD@Z$0 10067090 f     splayer.obj
 0001:0006609b       __ehhandler$?OpenVariableLoader@SPlayer@@QAEPAVScriptPlayer@@HPBD@Z 1006709b f     splayer.obj
 0001:000660b0       __unwindfunclet$?OpenSprite@SPlayer@@QAEPAVScriptPlayer@@PAVScriptThread@@@Z$3 100670b0 f     splayer.obj
 0001:000660bb       __ehhandler$?OpenSprite@SPlayer@@QAEPAVScriptPlayer@@PAVScriptThread@@@Z 100670bb f     splayer.obj
 0001:000660d0       __unwindfunclet$?DecodeQueryString@@YAXPAVScriptThread@@PAD@Z$0 100670d0 f     splayer.obj
 0001:000660d8       __unwindfunclet$?DecodeQueryString@@YAXPAVScriptThread@@PAD@Z$1 100670d8 f     splayer.obj
 0001:000660e0       __ehhandler$?DecodeQueryString@@YAXPAVScriptThread@@PAD@Z 100670e0 f     splayer.obj
 0001:000660f0       __unwindfunclet$?NetscapeDoURL@SPlayer@@QAEXPAD00PAULoadInfo@@@Z$0 100670f0 f     splayer.obj
 0001:000660f8       __ehhandler$?NetscapeDoURL@SPlayer@@QAEXPAD00PAULoadInfo@@@Z 100670f8 f     splayer.obj
 0001:00066110       __unwindfunclet$?GetTargetPath@SPlayer@@QAEPADPAUSObject@@@Z$0 10067110 f     splayer.obj
 0001:0006611b       __ehhandler$?GetTargetPath@SPlayer@@QAEPADPAUSObject@@@Z 1006711b f     splayer.obj
 0001:00066130       __unwindfunclet$?ConvertIntegerToString@@YAPADH@Z$0 10067130 f     splayer.obj
 0001:00066138       __ehhandler$?ConvertIntegerToString@@YAPADH@Z 10067138 f     splayer.obj
 0001:00066150       __unwindfunclet$?BuildButtonTabMap@SPlayer@@QAEPAVButtonWeight@1@XZ$0 10067150 f     splayer.obj
 0001:0006615b       __ehhandler$?BuildButtonTabMap@SPlayer@@QAEPAVButtonWeight@1@XZ 1006715b f     splayer.obj
 0001:00066170       __unwindfunclet$??0SPlayer@@QAE@XZ$0 10067170 f     splayer.obj
 0001:0006617b       __unwindfunclet$??0SPlayer@@QAE@XZ$1 1006717b f     splayer.obj
 0001:00066189       __unwindfunclet$??0SPlayer@@QAE@XZ$2 10067189 f     splayer.obj
 0001:00066197       __unwindfunclet$??0SPlayer@@QAE@XZ$3 10067197 f     splayer.obj
 0001:000661a5       __ehhandler$??0SPlayer@@QAE@XZ 100671a5 f     splayer.obj
 0001:000661b0       __unwindfunclet$??1SPlayer@@UAE@XZ$0 100671b0 f     splayer.obj
 0001:000661bb       __unwindfunclet$??1SPlayer@@UAE@XZ$1 100671bb f     splayer.obj
 0001:000661c9       __unwindfunclet$??1SPlayer@@UAE@XZ$2 100671c9 f     splayer.obj
 0001:000661d7       __unwindfunclet$??1SPlayer@@UAE@XZ$3 100671d7 f     splayer.obj
 0001:000661e5       __ehhandler$??1SPlayer@@UAE@XZ 100671e5 f     splayer.obj
 0001:000661f0       __unwindfunclet$?OpenLayer@SPlayer@@QAEPAVScriptPlayer@@HH@Z$0 100671f0 f     splayer.obj
 0001:000661fb       __ehhandler$?OpenLayer@SPlayer@@QAEPAVScriptPlayer@@HH@Z 100671fb f     splayer.obj
 0001:00066210       __unwindfunclet$?DoActions@SPlayer@@QAEXXZ$0 10067210 f     splayer.obj
 0001:0006621e       __unwindfunclet$?DoActions@SPlayer@@QAEXXZ$1 1006721e f     splayer.obj
 0001:00066229       __unwindfunclet$?DoActions@SPlayer@@QAEXXZ$2 10067229 f     splayer.obj
 0001:00066234       __ehhandler$?DoActions@SPlayer@@QAEXXZ 10067234 f     splayer.obj
 0001:00066240       __unwindfunclet$??1AaviRead@@UAE@XZ$0 10067240 f     avi.obj
 0001:00066248       __unwindfunclet$??1AaviRead@@UAE@XZ$1 10067248 f     avi.obj
 0001:00066263       __ehhandler$??1AaviRead@@UAE@XZ 10067263 f     avi.obj
 0001:00066270       __unwindfunclet$?initStreams@AaviRead@@AAE_NXZ$0 10067270 f     avi.obj
 0001:0006627b       __ehhandler$?initStreams@AaviRead@@AAE_NXZ 1006727b f     avi.obj
 0001:00066290       __unwindfunclet$?open@AaviWrite@@QAEXXZ$0 10067290 f     avi.obj
 0001:0006629b       __unwindfunclet$?open@AaviWrite@@QAEXXZ$1 1006729b f     avi.obj
 0001:000662a6       __unwindfunclet$?open@AaviWrite@@QAEXXZ$2 100672a6 f     avi.obj
 0001:000662ae       __unwindfunclet$?open@AaviWrite@@QAEXXZ$3 100672ae f     avi.obj
 0001:000662b6       __unwindfunclet$?open@AaviWrite@@QAEXXZ$4 100672b6 f     avi.obj
 0001:000662be       __unwindfunclet$?open@AaviWrite@@QAEXXZ$5 100672be f     avi.obj
 0001:000662c6       __unwindfunclet$?open@AaviWrite@@QAEXXZ$6 100672c6 f     avi.obj
 0001:000662ce       __unwindfunclet$?open@AaviWrite@@QAEXXZ$7 100672ce f     avi.obj
 0001:000662d6       __unwindfunclet$?open@AaviWrite@@QAEXXZ$8 100672d6 f     avi.obj
 0001:000662de       __unwindfunclet$?open@AaviWrite@@QAEXXZ$9 100672de f     avi.obj
 0001:000662e6       __unwindfunclet$?open@AaviWrite@@QAEXXZ$10 100672e6 f     avi.obj
 0001:000662f1       __ehhandler$?open@AaviWrite@@QAEXXZ 100672f1 f     avi.obj
 0001:00066300       __unwindfunclet$?close@AaviWrite@@QAEXXZ$0 10067300 f     avi.obj
 0001:00066308       __ehhandler$?close@AaviWrite@@QAEXXZ 10067308 f     avi.obj
 0001:00066320       __unwindfunclet$?writeFrame@AaviWrite@@QAE_NXZ$0 10067320 f     avi.obj
 0001:0006632b       __unwindfunclet$?writeFrame@AaviWrite@@QAE_NXZ$1 1006732b f     avi.obj
 0001:00066336       __ehhandler$?writeFrame@AaviWrite@@QAE_NXZ 10067336 f     avi.obj
 0001:00066340       __unwindfunclet$?open@AaviRead@@AAE_NXZ$18 10067340 f     avi.obj
 0001:0006634e       __ehhandler$?open@AaviRead@@AAE_NXZ 1006734e f     avi.obj
 0001:00066360       __unwindfunclet$??0AaviWrite@@QAE@PADHHM@Z$0 10067360 f     avi.obj
 0001:00066368       __unwindfunclet$??0AaviWrite@@QAE@PADHHM@Z$1 10067368 f     avi.obj
 0001:00066373       __unwindfunclet$??0AaviWrite@@QAE@PADHHM@Z$2 10067373 f     avi.obj
 0001:0006637e       __ehhandler$??0AaviWrite@@QAE@PADHHM@Z 1006737e f     avi.obj
 0001:00066390       __unwindfunclet$??1AaviWrite@@UAE@XZ$0 10067390 f     avi.obj
 0001:00066398       __ehhandler$??1AaviWrite@@UAE@XZ 10067398 f     avi.obj
 0001:000663b0       __unwindfunclet$??0AaviRead@@QAE@PADH@Z$0 100673b0 f     avi.obj
 0001:000663b8       __unwindfunclet$??0AaviRead@@QAE@PADH@Z$1 100673b8 f     avi.obj
 0001:000663d3       __ehhandler$??0AaviRead@@QAE@PADH@Z 100673d3 f     avi.obj
 0001:000663e0       __unwindfunclet$?load@Abitmap@@QAE_NPAD@Z$0 100673e0 f     bitmap.obj
 0001:000663ee       __unwindfunclet$?load@Abitmap@@QAE_NPAD@Z$1 100673ee f     bitmap.obj
 0001:000663fc       __ehhandler$?load@Abitmap@@QAE_NPAD@Z 100673fc f     bitmap.obj
 0001:00066410       __unwindfunclet$?save@Abitmap@@QAE_NPADH@Z$0 10067410 f     bitmap.obj
 0001:0006641e       __ehhandler$?save@Abitmap@@QAE_NPADH@Z 1006741e f     bitmap.obj
 0001:00066430       __unwindfunclet$??0Abitmap@@QAE@PAVAresobj@@@Z$0 10067430 f     bitmap.obj
 0001:00066438       __unwindfunclet$??0Abitmap@@QAE@PAVAresobj@@@Z$1 10067438 f     bitmap.obj
 0001:00066443       __ehhandler$??0Abitmap@@QAE@PAVAresobj@@@Z 10067443 f     bitmap.obj
 0001:00066450       __unwindfunclet$??0Abitmap@@QAE@PAD@Z$0 10067450 f     bitmap.obj
 0001:00066458       __ehhandler$??0Abitmap@@QAE@PAD@Z 10067458 f     bitmap.obj
 0001:00066470       __unwindfunclet$?getDesktop@Abitmap@@SAPAV1@XZ$0 10067470 f     bitmap.obj
 0001:0006647b       __ehhandler$?getDesktop@Abitmap@@SAPAV1@XZ 1006747b f     bitmap.obj
 0001:00066490       __unwindfunclet$??0Abuffer@@QAE@PADH@Z$0 10067490 f     buffer.obj
 0001:00066498       __unwindfunclet$??0Abuffer@@QAE@PADH@Z$1 10067498 f     buffer.obj
 0001:000664a3       __ehhandler$??0Abuffer@@QAE@PADH@Z 100674a3 f     buffer.obj
 0001:000664b0       __unwindfunclet$??1Abuffer@@UAE@XZ$0 100674b0 f     buffer.obj
 0001:000664b8       __unwindfunclet$??1Abuffer@@UAE@XZ$1 100674b8 f     buffer.obj
 0001:000664c3       __ehhandler$??1Abuffer@@UAE@XZ 100674c3 f     buffer.obj
 0001:000664d0       __unwindfunclet$??0Abutton@@QAE@PADPAVAobject@@HHHHPAVAresobj@@H@Z$0 100674d0 f     button.obj
 0001:000664d8       __unwindfunclet$??0Abutton@@QAE@PADPAVAobject@@HHHHPAVAresobj@@H@Z$1 100674d8 f     button.obj
 0001:000664e3       __ehhandler$??0Abutton@@QAE@PADPAVAobject@@HHHHPAVAresobj@@H@Z 100674e3 f     button.obj
 0001:000664f0       __unwindfunclet$??0Abutton@@QAE@PADPAVAobject@@HHHHPAVAbitmap@@H@Z$0 100674f0 f     button.obj
 0001:000664f8       __unwindfunclet$??0Abutton@@QAE@PADPAVAobject@@HHHHPAVAbitmap@@H@Z$1 100674f8 f     button.obj
 0001:00066503       __ehhandler$??0Abutton@@QAE@PADPAVAobject@@HHHHPAVAbitmap@@H@Z 10067503 f     button.obj
 0001:00066510       __unwindfunclet$??0Abutton@@QAE@PADPAVAobject@@HHH@Z$0 10067510 f     button.obj
 0001:00066518       __unwindfunclet$??0Abutton@@QAE@PADPAVAobject@@HHH@Z$1 10067518 f     button.obj
 0001:00066523       __unwindfunclet$??0Abutton@@QAE@PADPAVAobject@@HHH@Z$2 10067523 f     button.obj
 0001:0006653c       __ehhandler$??0Abutton@@QAE@PADPAVAobject@@HHH@Z 1006753c f     button.obj
 0001:00066550       __unwindfunclet$??1Abutton@@UAE@XZ$0 10067550 f     button.obj
 0001:00066558       __ehhandler$??1Abutton@@UAE@XZ 10067558 f     button.obj
 0001:00066570       __unwindfunclet$?getBitmap@Aclipboard@@SAPAVAbitmap@@XZ$0 10067570 f     clipboard.obj
 0001:0006657b       __ehhandler$?getBitmap@Aclipboard@@SAPAVAbitmap@@XZ 1006757b f     clipboard.obj
 0001:00066590       __unwindfunclet$??1Ad3d@@UAE@XZ$0 10067590 f     d3d.obj
 0001:00066598       __ehhandler$??1Ad3d@@UAE@XZ 10067598 f     d3d.obj
 0001:000665b0       __unwindfunclet$??1Adisplay@@UAE@XZ$0 100675b0 f     display.obj
 0001:000665b8       __ehhandler$??1Adisplay@@UAE@XZ 100675b8 f     display.obj
 0001:000665d0       __unwindfunclet$??0Adisplay@@QAE@PADPAVAobject@@HHHHPAVAresobj@@HHH@Z$0 100675d0 f     display.obj
 0001:000665d8       __unwindfunclet$??0Adisplay@@QAE@PADPAVAobject@@HHHHPAVAresobj@@HHH@Z$1 100675d8 f     display.obj
 0001:000665e3       __ehhandler$??0Adisplay@@QAE@PADPAVAobject@@HHHHPAVAresobj@@HHH@Z 100675e3 f     display.obj
 0001:000665f0       __unwindfunclet$??0Adisplay@@QAE@PADPAVAobject@@HHH@Z$0 100675f0 f     display.obj
 0001:000665f8       __unwindfunclet$??0Adisplay@@QAE@PADPAVAobject@@HHH@Z$3 100675f8 f     display.obj
 0001:00066600       __unwindfunclet$??0Adisplay@@QAE@PADPAVAobject@@HHH@Z$4 10067600 f     display.obj
 0001:0006660b       __unwindfunclet$??0Adisplay@@QAE@PADPAVAobject@@HHH@Z$1 1006760b f     display.obj
 0001:00066613       __unwindfunclet$??0Adisplay@@QAE@PADPAVAobject@@HHH@Z$2 10067613 f     display.obj
 0001:0006661e       __ehhandler$??0Adisplay@@QAE@PADPAVAobject@@HHH@Z 1006761e f     display.obj
 0001:00066630       __unwindfunclet$??0Aedit@@QAE@PADPAVAobject@@HHHH@Z$0 10067630 f     edit.obj
 0001:00066638       __ehhandler$??0Aedit@@QAE@PADPAVAobject@@HHHH@Z 10067638 f     edit.obj
 0001:00066650       __unwindfunclet$??0AfileDlg@@QAE@PADPAVAobject@@00H@Z$0 10067650 f     filedlg.obj
 0001:0006665b       __ehhandler$??0AfileDlg@@QAE@PADPAVAobject@@00H@Z 1006765b f     filedlg.obj
 0001:00066670       __unwindfunclet$??0Aflash@@QAE@PADPAVAobject@@HHHH@Z$0 10067670 f     flash.obj
 0001:00066678       __unwindfunclet$??0Aflash@@QAE@PADPAVAobject@@HHHH@Z$1 10067678 f     flash.obj
 0001:00066683       __ehhandler$??0Aflash@@QAE@PADPAVAobject@@HHHH@Z 10067683 f     flash.obj
 0001:00066690       __unwindfunclet$??1Aflash@@UAE@XZ$0 10067690 f     flash.obj
 0001:00066698       __ehhandler$??1Aflash@@UAE@XZ 10067698 f     flash.obj
 0001:000666b0       __unwindfunclet$??0Afont@@QAE@PAD0HH0HH@Z$0 100676b0 f     font.obj
 0001:000666b8       __unwindfunclet$??0Afont@@QAE@PAD0HH0HH@Z$1 100676b8 f     font.obj
 0001:000666c3       __ehhandler$??0Afont@@QAE@PAD0HH0HH@Z 100676c3 f     font.obj
 0001:000666d0       __unwindfunclet$??0Afont@@QAE@PADPAVAresobj@@HH0HH@Z$0 100676d0 f     font.obj
 0001:000666d8       __unwindfunclet$??0Afont@@QAE@PADPAVAresobj@@HH0HH@Z$1 100676d8 f     font.obj
 0001:000666e3       __ehhandler$??0Afont@@QAE@PADPAVAresobj@@HH0HH@Z 100676e3 f     font.obj
 0001:000666f0       __unwindfunclet$??0Afont@@QAE@PADPAVAresobj@@HH@Z$0 100676f0 f     font.obj
 0001:000666f8       __unwindfunclet$??0Afont@@QAE@PADPAVAresobj@@HH@Z$1 100676f8 f     font.obj
 0001:00066703       __ehhandler$??0Afont@@QAE@PADPAVAresobj@@HH@Z 10067703 f     font.obj
 0001:00066710       __unwindfunclet$??1Afont@@UAE@XZ$0 10067710 f     font.obj
 0001:00066718       __ehhandler$??1Afont@@UAE@XZ 10067718 f     font.obj
 0001:00066730       __unwindfunclet$?sendFile@AftpClient@@UAE_NPADPAVAfile@@@Z$0 10067730 f     ftp.obj
 0001:0006673e       __ehhandler$?sendFile@AftpClient@@UAE_NPADPAVAfile@@@Z 1006773e f     ftp.obj
 0001:00066750       __unwindfunclet$??0AftpClient@@QAE@PAD00@Z$0 10067750 f     ftp.obj
 0001:00066758       __unwindfunclet$??0AftpClient@@QAE@PAD00@Z$1 10067758 f     ftp.obj
 0001:00066763       __unwindfunclet$??0AftpClient@@QAE@PAD00@Z$2 10067763 f     ftp.obj
 0001:0006676e       __unwindfunclet$??0AftpClient@@QAE@PAD00@Z$3 1006776e f     ftp.obj
 0001:00066779       __ehhandler$??0AftpClient@@QAE@PAD00@Z 10067779 f     ftp.obj
 0001:00066790       __unwindfunclet$??1AftpClient@@UAE@XZ$0 10067790 f     ftp.obj
 0001:00066798       __unwindfunclet$??1AftpClient@@UAE@XZ$1 10067798 f     ftp.obj
 0001:000667bf       __unwindfunclet$??1AftpClient@@UAE@XZ$2 100677bf f     ftp.obj
 0001:000667ca       __ehhandler$??1AftpClient@@UAE@XZ 100677ca f     ftp.obj
 0001:000667e0       __unwindfunclet$?getFont@Alib@@QAEPAVAfont@@H@Z$0 100677e0 f     interface.obj
 0001:000667ee       __unwindfunclet$?getFont@Alib@@QAEPAVAfont@@H@Z$1 100677ee f     interface.obj
 0001:00066810       __unwindfunclet$?getFont@Alib@@QAEPAVAfont@@H@Z$2 10067810 f     interface.obj
 0001:0006681e       __unwindfunclet$?getFont@Alib@@QAEPAVAfont@@H@Z$3 1006781e f     interface.obj
 0001:00066840       __unwindfunclet$?getFont@Alib@@QAEPAVAfont@@H@Z$4 10067840 f     interface.obj
 0001:0006684e       __unwindfunclet$?getFont@Alib@@QAEPAVAfont@@H@Z$5 1006784e f     interface.obj
 0001:0006686d       __unwindfunclet$?getFont@Alib@@QAEPAVAfont@@H@Z$6 1006786d f     interface.obj
 0001:0006687b       __unwindfunclet$?getFont@Alib@@QAEPAVAfont@@H@Z$7 1006787b f     interface.obj
 0001:0006689d       __unwindfunclet$?getFont@Alib@@QAEPAVAfont@@H@Z$8 1006789d f     interface.obj
 0001:000668ab       __unwindfunclet$?getFont@Alib@@QAEPAVAfont@@H@Z$9 100678ab f     interface.obj
 0001:000668cd       __unwindfunclet$?getFont@Alib@@QAEPAVAfont@@H@Z$10 100678cd f     interface.obj
 0001:000668db       __unwindfunclet$?getFont@Alib@@QAEPAVAfont@@H@Z$11 100678db f     interface.obj
 0001:000668fd       __unwindfunclet$?getFont@Alib@@QAEPAVAfont@@H@Z$12 100678fd f     interface.obj
 0001:0006690b       __unwindfunclet$?getFont@Alib@@QAEPAVAfont@@H@Z$13 1006790b f     interface.obj
 0001:0006692d       __unwindfunclet$?getFont@Alib@@QAEPAVAfont@@H@Z$14 1006792d f     interface.obj
 0001:0006693b       __unwindfunclet$?getFont@Alib@@QAEPAVAfont@@H@Z$15 1006793b f     interface.obj
 0001:00066962       __unwindfunclet$?getFont@Alib@@QAEPAVAfont@@H@Z$16 10067962 f     interface.obj
 0001:00066970       __unwindfunclet$?getFont@Alib@@QAEPAVAfont@@H@Z$17 10067970 f     interface.obj
 0001:00066997       __unwindfunclet$?getFont@Alib@@QAEPAVAfont@@H@Z$18 10067997 f     interface.obj
 0001:000669a5       __unwindfunclet$?getFont@Alib@@QAEPAVAfont@@H@Z$19 100679a5 f     interface.obj
 0001:000669cc       __unwindfunclet$?getFont@Alib@@QAEPAVAfont@@H@Z$20 100679cc f     interface.obj
 0001:000669da       __unwindfunclet$?getFont@Alib@@QAEPAVAfont@@H@Z$21 100679da f     interface.obj
 0001:00066a01       __unwindfunclet$?getFont@Alib@@QAEPAVAfont@@H@Z$22 10067a01 f     interface.obj
 0001:00066a0f       __unwindfunclet$?getFont@Alib@@QAEPAVAfont@@H@Z$23 10067a0f f     interface.obj
 0001:00066a36       __unwindfunclet$?getFont@Alib@@QAEPAVAfont@@H@Z$24 10067a36 f     interface.obj
 0001:00066a44       __unwindfunclet$?getFont@Alib@@QAEPAVAfont@@H@Z$25 10067a44 f     interface.obj
 0001:00066a6b       __unwindfunclet$?getFont@Alib@@QAEPAVAfont@@H@Z$26 10067a6b f     interface.obj
 0001:00066a79       __unwindfunclet$?getFont@Alib@@QAEPAVAfont@@H@Z$27 10067a79 f     interface.obj
 0001:00066aa0       __unwindfunclet$?getFont@Alib@@QAEPAVAfont@@H@Z$28 10067aa0 f     interface.obj
 0001:00066aae       __unwindfunclet$?getFont@Alib@@QAEPAVAfont@@H@Z$29 10067aae f     interface.obj
 0001:00066ad5       __unwindfunclet$?getFont@Alib@@QAEPAVAfont@@H@Z$30 10067ad5 f     interface.obj
 0001:00066ae3       __unwindfunclet$?getFont@Alib@@QAEPAVAfont@@H@Z$31 10067ae3 f     interface.obj
 0001:00066b0a       __unwindfunclet$?getFont@Alib@@QAEPAVAfont@@H@Z$32 10067b0a f     interface.obj
 0001:00066b18       __unwindfunclet$?getFont@Alib@@QAEPAVAfont@@H@Z$33 10067b18 f     interface.obj
 0001:00066b3f       __unwindfunclet$?getFont@Alib@@QAEPAVAfont@@H@Z$34 10067b3f f     interface.obj
 0001:00066b4d       __unwindfunclet$?getFont@Alib@@QAEPAVAfont@@H@Z$35 10067b4d f     interface.obj
 0001:00066b74       __unwindfunclet$?getFont@Alib@@QAEPAVAfont@@H@Z$36 10067b74 f     interface.obj
 0001:00066b82       __unwindfunclet$?getFont@Alib@@QAEPAVAfont@@H@Z$37 10067b82 f     interface.obj
 0001:00066ba9       __unwindfunclet$?getFont@Alib@@QAEPAVAfont@@H@Z$38 10067ba9 f     interface.obj
 0001:00066bb7       __unwindfunclet$?getFont@Alib@@QAEPAVAfont@@H@Z$39 10067bb7 f     interface.obj
 0001:00066bdb       __ehhandler$?getFont@Alib@@QAEPAVAfont@@H@Z 10067bdb f     interface.obj
 0001:00066bf0       __unwindfunclet$??1Aitem@@UAE@XZ$0 10067bf0 f     item.obj
 0001:00066bf8       __ehhandler$??1Aitem@@UAE@XZ 10067bf8 f     item.obj
 0001:00066c10       __unwindfunclet$?copyAll@Aitem@@QAEXPAV1@@Z$0 10067c10 f     item.obj
 0001:00066c1b       __ehhandler$?copyAll@Aitem@@QAEXPAV1@@Z 10067c1b f     item.obj
 0001:00066c30       __unwindfunclet$?mouse@Alist@@UAE_NHHHH@Z$0 10067c30 f     list.obj
 0001:00066c3b       __ehhandler$?mouse@Alist@@UAE_NHHHH@Z 10067c3b f     list.obj
 0001:00066c50       __unwindfunclet$??0Alist@@QAE@PADPAVAobject@@HHHHPAVAitem@@@Z$0 10067c50 f     list.obj
 0001:00066c58       __ehhandler$??0Alist@@QAE@PADPAVAobject@@HHHHPAVAitem@@@Z 10067c58 f     list.obj
 0001:00066c70       __unwindfunclet$??1Amenu@@UAE@XZ$0 10067c70 f     menu.obj
 0001:00066c78       __ehhandler$??1Amenu@@UAE@XZ 10067c78 f     menu.obj
 0001:00066c90       __unwindfunclet$??0Amenu@@QAE@PADPAVAobject@@PAVAitem@@1H2@Z$0 10067c90 f     menu.obj
 0001:00066c98       __unwindfunclet$??0Amenu@@QAE@PADPAVAobject@@PAVAitem@@1H2@Z$1 10067c98 f     menu.obj
 0001:00066ca3       __ehhandler$??0Amenu@@QAE@PADPAVAobject@@PAVAitem@@1H2@Z 10067ca3 f     menu.obj
 0001:00066cb0       __unwindfunclet$?mouse@Amenu@@UAE_NHHHH@Z$0 10067cb0 f     menu.obj
 0001:00066cbb       __ehhandler$?mouse@Amenu@@UAE_NHHHH@Z 10067cbb f     menu.obj
 0001:00066cd0       __unwindfunclet$??0Abitmap@@QAE@ABV0@@Z$0 10067cd0 f     movie.obj
 0001:00066cd8       __ehhandler$??0Abitmap@@QAE@ABV0@@Z 10067cd8 f     movie.obj
 0001:00066cf0       __unwindfunclet$??0bitmapL@@QAE@PAVAbitmap@@PAV0@1M@Z$0 10067cf0 f     movie.obj
 0001:00066cfe       __unwindfunclet$??0bitmapL@@QAE@PAVAbitmap@@PAV0@1M@Z$1 10067cfe f     movie.obj
 0001:00066d0c       __ehhandler$??0bitmapL@@QAE@PAVAbitmap@@PAV0@1M@Z 10067d0c f     movie.obj
 0001:00066d20       __unwindfunclet$?getFileInfo@Amovie@@SA_NPAVAmovieFileInfo@@PAD@Z$10 10067d20 f     movie.obj
 0001:00066d2e       __ehhandler$?getFileInfo@Amovie@@SA_NPAVAmovieFileInfo@@PAD@Z 10067d2e f     movie.obj
 0001:00066d40       __unwindfunclet$?getSnapshot@Amovie@@SAPAVAbitmap@@PADPAM@Z$0 10067d40 f     movie.obj
 0001:00066d4e       __ehhandler$?getSnapshot@Amovie@@SAPAVAbitmap@@PADPAM@Z 10067d4e f     movie.obj
 0001:00066d60       __unwindfunclet$??0Amovie@@QAE@PADHHH@Z$0 10067d60 f     movie.obj
 0001:00066d68       __ehhandler$??0Amovie@@QAE@PADHHH@Z 10067d68 f     movie.obj
 0001:00066d80       __unwindfunclet$??0Amovie@@QAE@PADHHM@Z$0 10067d80 f     movie.obj
 0001:00066d88       __unwindfunclet$??0Amovie@@QAE@PADHHM@Z$1 10067d88 f     movie.obj
 0001:00066d93       __ehhandler$??0Amovie@@QAE@PADHHM@Z 10067d93 f     movie.obj
 0001:00066da0       __unwindfunclet$?get@Amovie@@QAEPAVAbitmap@@H@Z$0 10067da0 f     movie.obj
 0001:00066dab       __ehhandler$?get@Amovie@@QAEPAVAbitmap@@H@Z 10067dab f     movie.obj
 0001:00066dc0       __unwindfunclet$?get@Amovie@@QAE_NPAVAbitmap@@H@Z$0 10067dc0 f     movie.obj
 0001:00066dcb       __ehhandler$?get@Amovie@@QAE_NPAVAbitmap@@H@Z 10067dcb f     movie.obj
 0001:00066de0       __unwindfunclet$?get@Amovie@@QAE_NPAVAbitmap@@HHHHHHHHHHMIH@Z$0 10067de0 f     movie.obj
 0001:00066deb       __ehhandler$?get@Amovie@@QAE_NPAVAbitmap@@HHHHHHHHHHMIH@Z 10067deb f     movie.obj
 0001:00066e00       __ehhandler$?open@Amovie@@QAE_NPAD@Z 10067e00 f     movie.obj
 0001:00066e10       __unwindfunclet$?openFLI@Amovie@@QAE_NPAD@Z$0 10067e10 f     movie.obj
 0001:00066e1b       __ehhandler$?openFLI@Amovie@@QAE_NPAD@Z 10067e1b f     movie.obj
 0001:00066e30       __unwindfunclet$??0Amovie@@QAE@PAD0@Z$0 10067e30 f     movie.obj
 0001:00066e38       __unwindfunclet$??0Amovie@@QAE@PAD0@Z$1 10067e38 f     movie.obj
 0001:00066e43       __ehhandler$??0Amovie@@QAE@PAD0@Z 10067e43 f     movie.obj
 0001:00066e50       __unwindfunclet$?insert@Amovie@@QAE_NPAVAbitmap@@H@Z$0 10067e50 f     movie.obj
 0001:00066e5b       __unwindfunclet$?insert@Amovie@@QAE_NPAVAbitmap@@H@Z$1 10067e5b f     movie.obj
 0001:00066e66       __unwindfunclet$?insert@Amovie@@QAE_NPAVAbitmap@@H@Z$2 10067e66 f     movie.obj
 0001:00066e71       __unwindfunclet$?insert@Amovie@@QAE_NPAVAbitmap@@H@Z$3 10067e71 f     movie.obj
 0001:00066e7c       __unwindfunclet$?insert@Amovie@@QAE_NPAVAbitmap@@H@Z$4 10067e7c f     movie.obj
 0001:00066e87       __unwindfunclet$?insert@Amovie@@QAE_NPAVAbitmap@@H@Z$5 10067e87 f     movie.obj
 0001:00066e92       __unwindfunclet$?insert@Amovie@@QAE_NPAVAbitmap@@H@Z$6 10067e92 f     movie.obj
 0001:00066e9d       __unwindfunclet$?insert@Amovie@@QAE_NPAVAbitmap@@H@Z$7 10067e9d f     movie.obj
 0001:00066ea8       __unwindfunclet$?insert@Amovie@@QAE_NPAVAbitmap@@H@Z$8 10067ea8 f     movie.obj
 0001:00066eb3       __ehhandler$?insert@Amovie@@QAE_NPAVAbitmap@@H@Z 10067eb3 f     movie.obj
 0001:00066ec0       __unwindfunclet$?append@Amovie@@QAE_NPAVAbitmap@@H@Z$0 10067ec0 f     movie.obj
 0001:00066ecb       __unwindfunclet$?append@Amovie@@QAE_NPAVAbitmap@@H@Z$1 10067ecb f     movie.obj
 0001:00066ed6       __unwindfunclet$?append@Amovie@@QAE_NPAVAbitmap@@H@Z$2 10067ed6 f     movie.obj
 0001:00066ee1       __unwindfunclet$?append@Amovie@@QAE_NPAVAbitmap@@H@Z$3 10067ee1 f     movie.obj
 0001:00066eec       __unwindfunclet$?append@Amovie@@QAE_NPAVAbitmap@@H@Z$4 10067eec f     movie.obj
 0001:00066ef7       __unwindfunclet$?append@Amovie@@QAE_NPAVAbitmap@@H@Z$5 10067ef7 f     movie.obj
 0001:00066f02       __unwindfunclet$?append@Amovie@@QAE_NPAVAbitmap@@H@Z$6 10067f02 f     movie.obj
 0001:00066f0d       __ehhandler$?append@Amovie@@QAE_NPAVAbitmap@@H@Z 10067f0d f     movie.obj
 0001:00066f20       __unwindfunclet$??1Amovie@@UAE@XZ$0 10067f20 f     movie.obj
 0001:00066f28       __ehhandler$??1Amovie@@UAE@XZ 10067f28 f     movie.obj
 0001:00066f40       __unwindfunclet$??0Amsgbox@@QAE@PADPAVAobject@@00HH@Z$0 10067f40 f     msgbox.obj
 0001:00066f48       __ehhandler$??0Amsgbox@@QAE@PADPAVAobject@@00HH@Z 10067f48 f     msgbox.obj
 0001:00066f60       __unwindfunclet$?msgbox@Amsgbox@@SAHPAVAobject@@PAD1HH@Z$0 10067f60 f     msgbox.obj
 0001:00066f6b       __ehhandler$?msgbox@Amsgbox@@SAHPAVAobject@@PAD1HH@Z 10067f6b f     msgbox.obj
 0001:00066f80       __unwindfunclet$??0Aobject@@QAE@PADPAV0@HHHH@Z$0 10067f80 f     object.obj
 0001:00066f88       __unwindfunclet$??0Aobject@@QAE@PADPAV0@HHHH@Z$1 10067f88 f     object.obj
 0001:00066f93       __ehhandler$??0Aobject@@QAE@PADPAV0@HHHH@Z 10067f93 f     object.obj
 0001:00066fa0       __unwindfunclet$?NCmouse@Aobject@@UAE_NHHHH@Z$0 10067fa0 f     object.obj
 0001:00066fab       __ehhandler$?NCmouse@Aobject@@UAE_NHHHH@Z 10067fab f     object.obj
 0001:00066fc0       __unwindfunclet$??1Aobject@@UAE@XZ$0 10067fc0 f     object.obj
 0001:00066fc8       __ehhandler$??1Aobject@@UAE@XZ 10067fc8 f     object.obj
 0001:00066fe0       __unwindfunclet$?texture@AoglBitmap@@SAXPAVAbitmap@@HHHHH@Z$0 10067fe0 f     oglbitmap.obj
 0001:00066feb       __ehhandler$?texture@AoglBitmap@@SAXPAVAbitmap@@HHHHH@Z 10067feb f     oglbitmap.obj
 0001:00067000       __unwindfunclet$?getObj@Aresource@@UAEPAVAresobj@@PAD0@Z$0 10068000 f     resources.obj
 0001:0006700b       __ehhandler$?getObj@Aresource@@UAEPAVAresobj@@PAD0@Z 1006800b f     resources.obj
 0001:00067020       __unwindfunclet$??1AselButton@@UAE@XZ$0 10068020 f     selButton.obj
 0001:00067028       __ehhandler$??1AselButton@@UAE@XZ 10068028 f     selButton.obj
 0001:00067040       __unwindfunclet$??0AselButton@@QAE@PADPAVAobject@@HHHHPAVAresobj@@HH0@Z$0 10068040 f     selButton.obj
 0001:00067048       __unwindfunclet$??0AselButton@@QAE@PADPAVAobject@@HHHHPAVAresobj@@HH0@Z$1 10068048 f     selButton.obj
 0001:00067053       __ehhandler$??0AselButton@@QAE@PADPAVAobject@@HHHHPAVAresobj@@HH0@Z 10068053 f     selButton.obj
 0001:00067060       __unwindfunclet$??0AselButton@@QAE@PADPAVAobject@@HHHHPAVAbitmap@@HH0@Z$0 10068060 f     selButton.obj
 0001:00067068       __unwindfunclet$??0AselButton@@QAE@PADPAVAobject@@HHHHPAVAbitmap@@HH0@Z$1 10068068 f     selButton.obj
 0001:00067073       __ehhandler$??0AselButton@@QAE@PADPAVAobject@@HHHHPAVAbitmap@@HH0@Z 10068073 f     selButton.obj
 0001:00067080       __unwindfunclet$??0Astatic@@QAE@PADPAVAobject@@HHPAVAresobj@@@Z$0 10068080 f     static.obj
 0001:00067088       __unwindfunclet$??0Astatic@@QAE@PADPAVAobject@@HHPAVAresobj@@@Z$1 10068088 f     static.obj
 0001:00067090       __ehhandler$??0Astatic@@QAE@PADPAVAobject@@HHPAVAresobj@@@Z 10068090 f     static.obj
 0001:000670a0       __unwindfunclet$??0Asurface@@QAE@PADPAVAobject@@HHHH@Z$0 100680a0 f     surface.obj
 0001:000670a8       __unwindfunclet$??0Asurface@@QAE@PADPAVAobject@@HHHH@Z$1 100680a8 f     surface.obj
 0001:000670b3       __ehhandler$??0Asurface@@QAE@PADPAVAobject@@HHHH@Z 100680b3 f     surface.obj
 0001:000670c0       __unwindfunclet$??1Asurface@@UAE@XZ$0 100680c0 f     surface.obj
 0001:000670c8       __ehhandler$??1Asurface@@UAE@XZ 100680c8 f     surface.obj
 0001:000670e0       __unwindfunclet$??1AtitleBar@@UAE@XZ$0 100680e0 f     titleBar.obj
 0001:000670e8       __ehhandler$??1AtitleBar@@UAE@XZ 100680e8 f     titleBar.obj
 0001:00067100       __unwindfunclet$??0AtitleBar@@QAE@PADPAVAobject@@HHHH0@Z$0 10068100 f     titleBar.obj
 0001:00067108       __unwindfunclet$??0AtitleBar@@QAE@PADPAVAobject@@HHHH0@Z$1 10068108 f     titleBar.obj
 0001:00067113       __unwindfunclet$??0AtitleBar@@QAE@PADPAVAobject@@HHHH0@Z$2 10068113 f     titleBar.obj
 0001:0006712c       __unwindfunclet$??0AtitleBar@@QAE@PADPAVAobject@@HHHH0@Z$3 1006812c f     titleBar.obj
 0001:00067137       __unwindfunclet$??0AtitleBar@@QAE@PADPAVAobject@@HHHH0@Z$4 10068137 f     titleBar.obj
 0001:00067150       __unwindfunclet$??0AtitleBar@@QAE@PADPAVAobject@@HHHH0@Z$5 10068150 f     titleBar.obj
 0001:0006715b       __unwindfunclet$??0AtitleBar@@QAE@PADPAVAobject@@HHHH0@Z$6 1006815b f     titleBar.obj
 0001:00067174       __ehhandler$??0AtitleBar@@QAE@PADPAVAobject@@HHHH0@Z 10068174 f     titleBar.obj
 0001:00067180       __unwindfunclet$??0Atool@@QAE@PADPAVAobject@@HHPAVAresobj@@H@Z$0 10068180 f     toolbar.obj
 0001:00067188       __unwindfunclet$??0Atool@@QAE@PADPAVAobject@@HHPAVAresobj@@H@Z$1 10068188 f     toolbar.obj
 0001:00067193       __ehhandler$??0Atool@@QAE@PADPAVAobject@@HHPAVAresobj@@H@Z 10068193 f     toolbar.obj
 0001:000671a0       __unwindfunclet$??1Atool@@UAE@XZ$0 100681a0 f     toolbar.obj
 0001:000671a8       __ehhandler$??1Atool@@UAE@XZ 100681a8 f     toolbar.obj
 0001:000671c0       __unwindfunclet$?add@AtoolBar@@QAEXPAD0PAVAresobj@@H@Z$1 100681c0 f     toolbar.obj
 0001:000671cb       __unwindfunclet$?add@AtoolBar@@QAEXPAD0PAVAresobj@@H@Z$0 100681cb f     toolbar.obj
 0001:000671d6       __ehhandler$?add@AtoolBar@@QAEXPAD0PAVAresobj@@H@Z 100681d6 f     toolbar.obj
 0001:000671e0       __unwindfunclet$??0Atooltips@@QAE@PADPAVAobject@@@Z$0 100681e0 f     tooltips.obj
 0001:000671e8       __ehhandler$??0Atooltips@@QAE@PADPAVAobject@@@Z 100681e8 f     tooltips.obj
 0001:00067200       __unwindfunclet$??1AtreeView@@UAE@XZ$0 10068200 f     treeView.obj
 0001:00067208       __ehhandler$??1AtreeView@@UAE@XZ 10068208 f     treeView.obj
 0001:00067220       __unwindfunclet$??0AtreeView@@QAE@PADPAVAobject@@HHHHPAVAitem@@@Z$0 10068220 f     treeView.obj
 0001:00067228       __unwindfunclet$??0AtreeView@@QAE@PADPAVAobject@@HHHHPAVAitem@@@Z$1 10068228 f     treeView.obj
 0001:00067233       __unwindfunclet$??0AtreeView@@QAE@PADPAVAobject@@HHHHPAVAitem@@@Z$2 10068233 f     treeView.obj
 0001:0006724c       __ehhandler$??0AtreeView@@QAE@PADPAVAobject@@HHHHPAVAitem@@@Z 1006824c f     treeView.obj
 0001:00067260       __unwindfunclet$?NCmakeCursor@Awindow@@SAHPAVAresobj@@HH@Z$0 10068260 f     window.obj
 0001:0006726b       __ehhandler$?NCmakeCursor@Awindow@@SAHPAVAresobj@@HH@Z 1006826b f     window.obj
 0001:00067280       __unwindfunclet$??1Awindow@@UAE@XZ$0 10068280 f     window.obj
 0001:00067288       __unwindfunclet$??1Awindow@@UAE@XZ$1 10068288 f     window.obj
 0001:00067293       __ehhandler$??1Awindow@@UAE@XZ 10068293 f     window.obj
 0001:000672a0       __unwindfunclet$??0Awindow@@QAE@PADHHHH_N@Z$0 100682a0 f     window.obj
 0001:000672a8       __unwindfunclet$??0Awindow@@QAE@PADHHHH_N@Z$1 100682a8 f     window.obj
 0001:000672b3       __ehhandler$??0Awindow@@QAE@PADHHHH_N@Z 100682b3 f     window.obj
 0001:000672c0       __unwindfunclet$??0Awindow@@QAE@PADPAUHWND__@@HHHH_N@Z$0 100682c0 f     window.obj
 0001:000672c8       __unwindfunclet$??0Awindow@@QAE@PADPAUHWND__@@HHHH_N@Z$1 100682c8 f     window.obj
 0001:000672d3       __ehhandler$??0Awindow@@QAE@PADPAUHWND__@@HHHH_N@Z 100682d3 f     window.obj
 0001:000672e0       __unwindfunclet$??__Eicon@@YAXXZ$0 100682e0 f     window.obj
 0001:000672e8       __ehhandler$??__Eicon@@YAXXZ 100682e8 f     window.obj
 0001:00067300       ??__E?CI@NativeBitmap@@2VACI@@A@@YAXXZ 10068300 f     _Display.obj
 0001:00067330       ??__E?CI@AaviRead@@2VACI@@A@@YAXXZ 10068330 f     avi.obj
 0001:00067360       ??__E?CI@AaviWrite@@2VACI@@A@@YAXXZ 10068360 f     avi.obj
 0001:00067390       ??__E?CI@Abitmap@@2VACI@@A@@YAXXZ 10068390 f     bitmap.obj
 0001:000673c0       ??__E?CI@Abuffer@@2VACI@@A@@YAXXZ 100683c0 f     buffer.obj
 0001:000673f0       ??__E?CI@Abutton@@2VACI@@A@@YAXXZ 100683f0 f     button.obj
 0001:00067420       ??__E?CI@Ad3d@@2VACI@@A@@YAXXZ 10068420 f     d3d.obj
 0001:00067450       ??__E?CI@Adisplay@@2VACI@@A@@YAXXZ 10068450 f     display.obj
 0001:00067480       ??__E?CI@Aedit@@2VACI@@A@@YAXXZ 10068480 f     edit.obj
 0001:000674b0       ??__E?CI@Afile@@2VACI@@A@@YAXXZ 100684b0 f     file.obj
 0001:000674e0       ??__E?CI@AfileDlg@@2VACI@@A@@YAXXZ 100684e0 f     filedlg.obj
 0001:00067510       ??__E?CI@Afilehd@@2VACI@@A@@YAXXZ 10068510 f     filehd.obj
 0001:00067540       ??__E?CI@Afilemem@@2VACI@@A@@YAXXZ 10068540 f     filemem.obj
 0001:00067570       ??__E?CI@Aflash@@2VACI@@A@@YAXXZ 10068570 f     flash.obj
 0001:000675a0       ??__E?CI@Afont@@2VACI@@A@@YAXXZ 100685a0 f     font.obj
 0001:000675d0       ??__E?CI@AftpClient@@2VACI@@A@@YAXXZ 100685d0 f     ftp.obj
 0001:00067600       ??__EalibInstance@@YAXXZ   10068600 f     interface.obj
 0001:00067620       ??__Ealibres@@YAXXZ        10068620 f     interface.obj
 0001:00067650       ??__Eresource@@YAXXZ       10068650 f     interface.obj
 0001:00067680       ??__Ealib@@YAXXZ           10068680 f     interface.obj
 0001:00067690       ??__E?CI@Aitem@@2VACI@@A@@YAXXZ 10068690 f     item.obj
 0001:000676c0       ??__E?CI@Alist@@2VACI@@A@@YAXXZ 100686c0 f     list.obj
 0001:000676f0       ??__E?CI@Amenu@@2VACI@@A@@YAXXZ 100686f0 f     menu.obj
 0001:00067720       ??__E?CI@Amovie@@2VACI@@A@@YAXXZ 10068720 f     movie.obj
 0001:00067750       ??__E?CI@Amsgbox@@2VACI@@A@@YAXXZ 10068750 f     msgbox.obj
 0001:00067780       ??__E?CI@Anode@@2VACI@@A@@YAXXZ 10068780 f     node.obj
 0001:000677a0       ??__E?CI@Aobject@@2VACI@@A@@YAXXZ 100687a0 f     object.obj
 0001:000677d0       ??__E?CI@AoglBitmap@@2VACI@@A@@YAXXZ 100687d0 f     oglbitmap.obj
 0001:00067800       ??__E?CI@Apipe@@2VACI@@A@@YAXXZ 10068800 f     pipe.obj
 0001:00067830       ??__E?CI@Aplugz@@2VACI@@A@@YAXXZ 10068830 f     plugz.obj
 0001:00067860       ??__E?CI@Aregistry@@2VACI@@A@@YAXXZ 10068860 f     registry.obj
 0001:00067890       ??__E?CI@Aresobj@@2VACI@@A@@YAXXZ 10068890 f     resources.obj
 0001:000678c0       ??__E?CI@Aresource@@2VACI@@A@@YAXXZ 100688c0 f     resources.obj
 0001:000678f0       ??__E?CI@AscrollBar@@2VACI@@A@@YAXXZ 100688f0 f     scrollbar.obj
 0001:00067920       ??__E?CI@Asegment@@2VACI@@A@@YAXXZ 10068920 f     segment.obj
 0001:00067950       ??__E?CI@AselButton@@2VACI@@A@@YAXXZ 10068950 f     selButton.obj
 0001:00067980       ??__E?CI@Aserial@@2VACI@@A@@YAXXZ 10068980 f     serial.obj
 0001:000679b0       ??__E?CI@Astatic@@2VACI@@A@@YAXXZ 100689b0 f     static.obj
 0001:000679e0       ??__E?CI@Asurface@@2VACI@@A@@YAXXZ 100689e0 f     surface.obj
 0001:00067a10       ??__E?CI@AtitleBar@@2VACI@@A@@YAXXZ 10068a10 f     titleBar.obj
 0001:00067a40       ??__E?CI@AtoolBar@@2VACI@@A@@YAXXZ 10068a40 f     toolbar.obj
 0001:00067a70       ??__E?CI@Atool@@2VACI@@A@@YAXXZ 10068a70 f     toolbar.obj
 0001:00067aa0       ??__E?CI@Atooltips@@2VACI@@A@@YAXXZ 10068aa0 f     tooltips.obj
 0001:00067ad0       ??__E?CI@AtreeView@@2VACI@@A@@YAXXZ 10068ad0 f     treeView.obj
 0001:00067b00       ??__EsafeGUI@@YAXXZ        10068b00 f     window.obj
 0001:00067b20       ??__E?section@Awindowlist@@2VAsection@@A@@YAXXZ 10068b20 f     window.obj
 0001:00067b40       ??__E?CI@Awindow@@2VACI@@A@@YAXXZ 10068b40 f     window.obj
 0001:00067b70       ??__Etimesection@@YAXXZ    10068b70 f     window.obj
 0001:00067b90       ??__Eicon@@YAXXZ           10068b90 f     window.obj
 0001:00067c00       ??__F?CI@NativeBitmap@@2VACI@@A@@YAXXZ 10068c00 f     _Display.obj
 0001:00067c10       ??__F?CI@AaviRead@@2VACI@@A@@YAXXZ 10068c10 f     avi.obj
 0001:00067c20       ??__F?CI@AaviWrite@@2VACI@@A@@YAXXZ 10068c20 f     avi.obj
 0001:00067c30       ??__F?CI@Abitmap@@2VACI@@A@@YAXXZ 10068c30 f     bitmap.obj
 0001:00067c40       ??__F?CI@Abuffer@@2VACI@@A@@YAXXZ 10068c40 f     buffer.obj
 0001:00067c50       ??__F?CI@Abutton@@2VACI@@A@@YAXXZ 10068c50 f     button.obj
 0001:00067c60       ??__F?CI@Ad3d@@2VACI@@A@@YAXXZ 10068c60 f     d3d.obj
 0001:00067c70       ??__F?CI@Adisplay@@2VACI@@A@@YAXXZ 10068c70 f     display.obj
 0001:00067c80       ??__F?CI@Aedit@@2VACI@@A@@YAXXZ 10068c80 f     edit.obj
 0001:00067c90       ??__F?CI@Afile@@2VACI@@A@@YAXXZ 10068c90 f     file.obj
 0001:00067ca0       ??__F?CI@AfileDlg@@2VACI@@A@@YAXXZ 10068ca0 f     filedlg.obj
 0001:00067cb0       ??__F?CI@Afilehd@@2VACI@@A@@YAXXZ 10068cb0 f     filehd.obj
 0001:00067cc0       ??__F?CI@Afilemem@@2VACI@@A@@YAXXZ 10068cc0 f     filemem.obj
 0001:00067cd0       ??__F?CI@Aflash@@2VACI@@A@@YAXXZ 10068cd0 f     flash.obj
 0001:00067ce0       ??__F?CI@Afont@@2VACI@@A@@YAXXZ 10068ce0 f     font.obj
 0001:00067cf0       ??__F?CI@AftpClient@@2VACI@@A@@YAXXZ 10068cf0 f     ftp.obj
 0001:00067d00       ??__Falibres@@YAXXZ        10068d00 f     interface.obj
 0001:00067d10       ??__Fresource@@YAXXZ       10068d10 f     interface.obj
 0001:00067d20       ??__Falib@@YAXXZ           10068d20 f     interface.obj
 0001:00067d50       ??__F?CI@Aitem@@2VACI@@A@@YAXXZ 10068d50 f     item.obj
 0001:00067d60       ??__F?CI@Alist@@2VACI@@A@@YAXXZ 10068d60 f     list.obj
 0001:00067d70       ??__F?CI@Amenu@@2VACI@@A@@YAXXZ 10068d70 f     menu.obj
 0001:00067d80       ??__F?CI@Amovie@@2VACI@@A@@YAXXZ 10068d80 f     movie.obj
 0001:00067d90       ??__F?CI@Amsgbox@@2VACI@@A@@YAXXZ 10068d90 f     msgbox.obj
 0001:00067da0       ??__F?CI@Anode@@2VACI@@A@@YAXXZ 10068da0 f     node.obj
 0001:00067de0       ??__F?CI@Aobject@@2VACI@@A@@YAXXZ 10068de0 f     object.obj
 0001:00067df0       ??__F?CI@AoglBitmap@@2VACI@@A@@YAXXZ 10068df0 f     oglbitmap.obj
 0001:00067e00       ??__F?CI@Apipe@@2VACI@@A@@YAXXZ 10068e00 f     pipe.obj
 0001:00067e10       ??__F?CI@Aplugz@@2VACI@@A@@YAXXZ 10068e10 f     plugz.obj
 0001:00067e20       ??__F?CI@Aregistry@@2VACI@@A@@YAXXZ 10068e20 f     registry.obj
 0001:00067e30       ??__F?CI@Aresobj@@2VACI@@A@@YAXXZ 10068e30 f     resources.obj
 0001:00067e40       ??__F?CI@Aresource@@2VACI@@A@@YAXXZ 10068e40 f     resources.obj
 0001:00067e50       ??__F?CI@AscrollBar@@2VACI@@A@@YAXXZ 10068e50 f     scrollbar.obj
 0001:00067e60       ??__F?CI@Asegment@@2VACI@@A@@YAXXZ 10068e60 f     segment.obj
 0001:00067e70       ??__F?CI@AselButton@@2VACI@@A@@YAXXZ 10068e70 f     selButton.obj
 0001:00067e80       ??__F?CI@Aserial@@2VACI@@A@@YAXXZ 10068e80 f     serial.obj
 0001:00067e90       ??__F?CI@Astatic@@2VACI@@A@@YAXXZ 10068e90 f     static.obj
 0001:00067ea0       ??__F?CI@Asurface@@2VACI@@A@@YAXXZ 10068ea0 f     surface.obj
 0001:00067eb0       ??__F?CI@AtitleBar@@2VACI@@A@@YAXXZ 10068eb0 f     titleBar.obj
 0001:00067ec0       ??__F?CI@AtoolBar@@2VACI@@A@@YAXXZ 10068ec0 f     toolbar.obj
 0001:00067ed0       ??__F?CI@Atool@@2VACI@@A@@YAXXZ 10068ed0 f     toolbar.obj
 0001:00067ee0       ??__F?CI@Atooltips@@2VACI@@A@@YAXXZ 10068ee0 f     tooltips.obj
 0001:00067ef0       ??__F?CI@AtreeView@@2VACI@@A@@YAXXZ 10068ef0 f     treeView.obj
 0001:00067f00       ??__FsafeGUI@@YAXXZ        10068f00 f     window.obj
 0001:00067f10       ??__F?section@Awindowlist@@2VAsection@@A@@YAXXZ 10068f10 f     window.obj
 0001:00067f20       ??__F?CI@Awindow@@2VACI@@A@@YAXXZ 10068f20 f     window.obj
 0001:00067f30       ??__Ftimesection@@YAXXZ    10068f30 f     window.obj
